(dp1
V11_332_760
p2
I4
sV11_332_762
p3
I4
sV11_332_767
p4
I4
sV11_332_766
p5
I4
sV11_332_769
p6
I4
sV11_332_768
p7
I4
sV11_371_824
p8
I7
sV11_318_772
p9
I3
sV11_318_773
p10
I3
sV11_318_770
p11
I3
sV11_318_771
p12
I3
sV11_318_774
p13
I3
sV11_318_775
p14
I3
sV8_45_99
p15
I1
sV7_19_47
p16
I1
sV7_19_48
p17
I1
sV11_341_811
p18
I5
sV11_341_810
p19
I5
sV11_341_775
p20
I5
sV11_341_812
p21
I5
sV11_341_815
p22
I5
sV11_341_814
p23
I5
sV11_341_817
p24
I5
sV11_341_818
p25
I5
sV11_350_791
p26
I6
sV11_322_784
p27
I3
sV11_322_785
p28
I3
sV11_322_786
p29
I3
sV11_322_780
p30
I3
sV11_322_781
p31
I3
sV11_322_782
p32
I3
sV11_322_783
p33
I3
sV11_359_827
p34
I6
sV11_359_826
p35
I6
sV11_359_825
p36
I6
sV11_359_824
p37
I6
sV11_359_823
p38
I6
sV11_359_822
p39
I6
sV11_359_821
p40
I6
sV11_359_820
p41
I6
sV11_371_814
p42
I7
sV11_371_815
p43
I7
sV11_371_817
p44
I7
sV11_371_810
p45
I6
sV11_371_811
p46
I6
sV11_371_812
p47
I6
sV11_371_813
p48
I7
sV11_371_818
p49
I7
sV11_371_819
p50
I7
sV10_161_393
p51
I2
sV10_161_392
p52
I2
sV10_161_391
p53
I2
sV10_161_390
p54
I2
sV11_363_819
p55
I6
sV11_363_817
p56
I6
sV11_363_816
p57
I6
sV11_363_811
p58
I6
sV11_363_810
p59
I6
sV11_363_813
p60
I6
sV11_363_812
p61
I6
sV8_44_103
p62
I1
sV8_44_102
p63
I1
sV8_44_101
p64
I1
sV8_44_100
p65
I1
sV11_350_792
p66
I6
sV11_345_798
p67
I5
sV11_345_799
p68
I5
sV11_345_792
p69
I5
sV11_345_793
p70
I5
sV11_345_790
p71
I5
sV11_345_791
p72
I5
sV11_345_796
p73
I5
sV11_345_797
p74
I5
sV10_176_399
p75
I2
sV11_345_795
p76
I5
sV11_349_811
p77
I6
sV11_323_785
p78
I3
sV11_323_784
p79
I3
sV11_323_787
p80
I3
sV11_323_786
p81
I3
sV11_323_781
p82
I3
sV11_323_780
p83
I3
sV11_323_783
p84
I3
sV11_323_782
p85
I3
sV11_337_762
p86
I4
sV11_337_763
p87
I4
sV11_337_764
p88
I4
sV11_337_765
p89
I4
sV11_337_766
p90
I4
sV11_337_767
p91
I4
sV11_349_810
p92
I6
sV10_173_396
p93
I2
sV10_173_397
p94
I2
sV6_11_25
p95
I1
sV6_11_24
p96
I1
sV10_173_393
p97
I2
sV10_173_398
p98
I2
sV10_173_399
p99
I2
sV10_177_411
p100
I3
sV10_177_410
p101
I3
sV11_367_827
p102
I6
sV11_341_763
p103
I5
sV6_10_24
p104
I1
sV6_10_25
p105
I1
sV11_355_821
p106
I6
sV11_355_820
p107
I6
sV6_10_23
p108
I1
sV11_367_820
p109
I6
sV11_341_813
p110
I5
sV11_358_822
p111
I6
sV11_358_823
p112
I6
sV11_358_820
p113
I6
sV11_349_815
p114
I6
sV11_358_826
p115
I6
sV11_358_827
p116
I6
sV11_358_824
p117
I6
sV11_358_825
p118
I6
sV11_358_828
p119
I6
sV11_343_818
p120
I5
sV11_339_780
p121
I5
sV11_339_781
p122
I5
sV11_339_782
p123
I5
sV11_339_783
p124
I5
sV11_339_784
p125
I5
sV11_339_785
p126
I5
sV11_339_786
p127
I5
sV11_339_787
p128
I5
sV11_339_788
p129
I5
sV11_339_789
p130
I5
sV11_349_814
p131
I6
sV11_339_768
p132
I5
sV11_339_769
p133
I5
sV11_367_822
p134
I6
sV11_354_801
p135
I6
sV11_339_762
p136
I5
sV11_339_763
p137
I5
sV11_339_760
p138
I5
sV11_339_761
p139
I5
sV11_339_766
p140
I5
sV11_339_767
p141
I5
sV11_339_764
p142
I5
sV11_339_765
p143
I5
sV11_347_816
p144
I5
sV11_354_805
p145
I6
sV11_354_806
p146
I6
sV11_354_807
p147
I6
sV11_349_816
p148
I6
sV11_347_815
p149
I5
sV11_336_810
p150
I4
sV11_347_813
p151
I5
sV11_358_821
p152
I6
sV11_318_761
p153
I3
sV11_318_760
p154
I3
sV11_318_763
p155
I3
sV11_318_762
p156
I3
sV11_318_765
p157
I3
sV11_318_764
p158
I3
sV11_318_767
p159
I3
sV11_318_766
p160
I3
sV11_318_769
p161
I3
sV11_318_768
p162
I3
sV10_170_382
p163
I2
sV11_364_816
p164
I6
sV11_364_817
p165
I6
sV11_364_814
p166
I6
sV11_364_813
p167
I6
sV11_364_810
p168
I6
sV11_364_811
p169
I6
sV11_353_821
p170
I6
sV11_347_810
p171
I5
sV11_353_820
p172
I6
sV11_351_820
p173
I6
sV11_339_818
p174
I5
sV10_168_406
p175
I2
sV11_339_811
p176
I5
sV10_168_404
p177
I2
sV10_168_405
p178
I2
sV10_168_402
p179
I2
sV10_168_403
p180
I2
sV10_168_400
p181
I2
sV10_168_401
p182
I2
sV11_338_811
p183
I5
sV11_338_810
p184
I5
sV11_363_820
p185
I6
sV11_363_821
p186
I6
sV11_363_822
p187
I6
sV11_363_823
p188
I6
sV11_363_824
p189
I6
sV11_363_825
p190
I6
sV11_363_826
p191
I6
sV11_363_827
p192
I6
sV11_368_813
p193
I6
sV11_368_810
p194
I6
sV11_368_817
p195
I6
sV11_356_819
p196
I6
sV11_368_818
p197
I6
sV11_368_819
p198
I6
sV11_356_818
p199
I6
sV11_345_789
p200
I5
sV11_345_788
p201
I5
sV11_362_824
p202
I6
sV11_345_785
p203
I5
sV11_345_787
p204
I5
sV11_345_786
p205
I5
sV11_337_779
p206
I5
sV11_337_778
p207
I5
sV11_337_777
p208
I5
sV11_337_776
p209
I5
sV11_337_775
p210
I5
sV11_337_774
p211
I4
sV11_337_773
p212
I4
sV11_337_772
p213
I4
sV11_337_771
p214
I4
sV11_337_770
p215
I4
sV11_360_823
p216
I6
sV11_360_822
p217
I6
sV6_9_23
p218
I1
sV11_360_820
p219
I6
sV11_360_827
p220
I6
sV6_9_24
p221
I1
sV11_360_825
p222
I6
sV11_360_824
p223
I6
sV11_316_770
p224
I3
sV11_316_771
p225
I3
sV11_316_772
p226
I3
sV11_316_773
p227
I3
sV11_331_788
p228
I4
sV11_331_789
p229
I4
sV11_331_780
p230
I4
sV11_331_781
p231
I4
sV11_331_782
p232
I4
sV11_331_783
p233
I4
sV11_331_784
p234
I4
sV11_331_785
p235
I4
sV11_331_786
p236
I4
sV11_331_787
p237
I4
sV11_370_809
p238
I6
sV11_343_808
p239
I5
sV11_343_809
p240
I5
sV11_343_804
p241
I5
sV11_343_805
p242
I5
sV11_343_806
p243
I5
sV11_343_807
p244
I5
sV11_343_800
p245
I5
sV11_343_801
p246
I5
sV11_343_802
p247
I5
sV11_343_803
p248
I5
sV9_86_197
p249
I1
sV9_86_196
p250
I1
sV11_343_815
p251
I5
sV9_86_199
p252
I1
sV9_86_198
p253
I1
sV10_167_382
p254
I2
sV10_167_383
p255
I2
sV10_167_380
p256
I2
sV10_167_381
p257
I2
sV10_167_386
p258
I2
sV10_167_387
p259
I2
sV10_167_384
p260
I2
sV11_370_810
p261
I6
sV11_342_795
p262
I5
sV10_167_388
p263
I2
sV10_167_389
p264
I2
sV11_370_813
p265
I6
sV11_342_794
p266
I5
sV11_339_797
p267
I5
sV11_339_796
p268
I5
sV11_339_795
p269
I5
sV11_339_794
p270
I5
sV11_339_793
p271
I5
sV11_339_792
p272
I5
sV11_339_791
p273
I5
sV11_339_790
p274
I5
sV11_370_815
p275
I6
sV11_339_799
p276
I5
sV11_339_798
p277
I5
sV11_329_765
p278
I4
sV9_85_204
p279
I1
sV9_85_202
p280
I1
sV9_85_203
p281
I1
sV9_85_200
p282
I1
sV11_329_764
p283
I4
sV11_370_816
p284
I6
sV11_339_779
p285
I5
sV11_339_778
p286
I5
sV11_329_766
p287
I4
sV11_339_771
p288
I5
sV11_339_770
p289
I5
sV11_339_773
p290
I5
sV11_339_772
p291
I5
sV11_339_775
p292
I5
sV11_339_774
p293
I5
sV11_339_777
p294
I5
sV11_339_776
p295
I5
sV11_346_788
p296
I5
sV11_346_789
p297
I5
sV11_346_787
p298
I5
sV11_336_798
p299
I4
sV11_336_799
p300
I4
sV11_336_794
p301
I4
sV11_336_795
p302
I4
sV11_336_796
p303
I4
sV11_336_797
p304
I4
sV11_336_790
p305
I4
sV11_336_791
p306
I4
sV11_336_792
p307
I4
sV11_336_793
p308
I4
sV11_341_796
p309
I5
sV11_341_797
p310
I5
sV11_349_813
p311
I6
sV11_349_812
p312
I6
sV11_358_805
p313
I6
sV11_341_792
p314
I5
sV11_341_793
p315
I5
sV11_341_790
p316
I5
sV11_358_800
p317
I6
sV11_341_791
p318
I5
sV11_334_779
p319
I4
sV11_335_791
p320
I4
sV11_335_790
p321
I4
sV11_347_804
p322
I5
sV11_338_789
p323
I5
sV11_364_804
p324
I6
sV11_364_807
p325
I6
sV11_364_806
p326
I6
sV9_81_198
p327
I1
sV9_81_199
p328
I1
sV9_81_196
p329
I1
sV9_81_197
p330
I1
sV9_81_194
p331
I1
sV9_81_195
p332
I1
sV9_81_192
p333
I1
sV9_81_193
p334
I1
sV9_81_190
p335
I1
sV9_81_191
p336
I1
sV11_343_784
p337
I5
sV11_355_816
p338
I6
sV10_159_390
p339
I1
sV11_369_826
p340
I6
sV11_369_827
p341
I6
sV11_369_824
p342
I6
sV11_369_825
p343
I6
sV11_369_822
p344
I6
sV11_369_823
p345
I6
sV11_355_817
p346
I6
sV11_369_821
p347
I6
sV11_333_768
p348
I4
sV11_333_769
p349
I4
sV11_333_765
p350
I4
sV11_333_766
p351
I4
sV11_333_767
p352
I4
sV11_333_760
p353
I4
sV11_333_761
p354
I4
sV11_333_762
p355
I4
sV11_333_763
p356
I4
sV10_164_396
p357
I2
sV10_164_397
p358
I2
sV10_164_394
p359
I2
sV10_164_395
p360
I2
sV10_164_392
p361
I2
sV10_164_393
p362
I2
sV10_164_390
p363
I2
sV10_164_391
p364
I2
sV10_164_398
p365
I2
sV11_349_822
p366
I6
sV11_339_809
p367
I5
sV11_339_808
p368
I5
sV11_339_807
p369
I5
sV11_339_806
p370
I5
sV11_339_805
p371
I5
sV11_339_804
p372
I5
sV11_339_802
p373
I5
sV11_339_801
p374
I5
sV11_339_800
p375
I5
sV8_42_101
p376
I1
sV8_42_100
p377
I1
sV8_42_102
p378
I1
sV9_82_200
p379
I1
sV10_184_403
p380
I3
sV10_184_404
p381
I3
sV10_184_405
p382
I3
sV10_184_406
p383
I3
sV10_184_407
p384
I3
sV10_184_408
p385
I3
sV10_184_409
p386
I3
sV11_365_822
p387
I6
sV11_365_823
p388
I6
sV11_365_821
p389
I6
sV11_365_826
p390
I6
sV11_365_827
p391
I6
sV11_365_824
p392
I6
sV11_365_825
p393
I6
sV11_335_768
p394
I4
sV11_335_766
p395
I4
sV11_335_767
p396
I4
sV11_335_764
p397
I4
sV11_335_765
p398
I4
sV11_335_763
p399
I4
sV11_358_798
p400
I6
sV11_358_799
p401
I6
sV11_349_796
p402
I5
sV11_349_792
p403
I5
sV11_349_793
p404
I5
sV11_349_790
p405
I5
sV11_349_791
p406
I5
sV11_349_798
p407
I5
sV11_337_782
p408
I5
sV11_337_783
p409
I5
sV11_337_780
p410
I5
sV11_337_781
p411
I5
sV11_337_786
p412
I5
sV11_337_787
p413
I5
sV11_337_784
p414
I5
sV11_337_785
p415
I5
sV11_354_808
p416
I6
sV11_354_809
p417
I6
sV11_337_788
p418
I5
sV11_337_789
p419
I5
sV11_331_799
p420
I4
sV11_331_798
p421
I4
sV11_331_797
p422
I4
sV11_331_796
p423
I4
sV11_331_795
p424
I4
sV11_331_794
p425
I4
sV11_331_793
p426
I4
sV11_331_792
p427
I4
sV11_331_791
p428
I4
sV11_331_790
p429
I4
sV11_343_813
p430
I5
sV11_343_812
p431
I5
sV11_343_811
p432
I5
sV11_343_810
p433
I5
sV11_343_817
p434
I5
sV11_342_818
p435
I5
sV11_343_814
p436
I5
sV11_370_811
p437
I6
sV11_342_817
p438
I5
sV11_342_814
p439
I5
sV11_342_815
p440
I5
sV11_342_812
p441
I5
sV11_370_814
p442
I6
sV11_342_810
p443
I5
sV11_342_811
p444
I5
sV10_167_391
p445
I2
sV10_167_390
p446
I2
sV10_167_393
p447
I2
sV10_167_392
p448
I2
sV10_167_395
p449
I2
sV10_167_394
p450
I2
sV10_167_397
p451
I2
sV10_167_396
p452
I2
sV10_167_399
p453
I2
sV10_167_398
p454
I2
sV11_358_808
p455
I6
sV11_358_809
p456
I6
sV11_373_816
p457
I7
sV11_373_817
p458
I7
sV11_373_814
p459
I7
sV11_373_815
p460
I7
sV11_373_813
p461
I7
sV11_342_799
p462
I5
sV11_346_799
p463
I5
sV11_345_794
p464
I5
sV11_346_795
p465
I5
sV11_342_798
p466
I5
sV11_346_797
p467
I5
sV11_346_796
p468
I5
sV11_346_791
p469
I5
sV11_346_790
p470
I5
sV11_346_793
p471
I5
sV11_346_792
p472
I5
sV11_336_783
p473
I4
sV11_336_782
p474
I4
sV11_336_781
p475
I4
sV11_336_780
p476
I4
sV11_336_787
p477
I4
sV11_336_786
p478
I4
sV11_336_785
p479
I4
sV11_336_784
p480
I4
sV11_336_789
p481
I4
sV11_336_788
p482
I4
sV11_327_778
p483
I3
sV11_327_779
p484
I3
sV11_327_770
p485
I3
sV11_327_771
p486
I3
sV11_327_772
p487
I3
sV11_327_773
p488
I3
sV11_327_775
p489
I3
sV11_327_776
p490
I3
sV11_327_777
p491
I3
sV8_40_96
p492
I1
sV11_337_768
p493
I4
sV11_352_800
p494
I6
sV8_40_95
p495
I1
sV11_319_768
p496
I3
sV11_319_769
p497
I3
sV11_352_804
p498
I6
sV11_337_769
p499
I4
sV11_319_764
p500
I3
sV11_319_765
p501
I3
sV11_319_766
p502
I3
sV11_319_767
p503
I3
sV11_319_760
p504
I3
sV11_319_761
p505
I3
sV11_319_762
p506
I3
sV11_319_763
p507
I3
sV11_354_822
p508
I6
sV10_159_381
p509
I1
sV10_159_380
p510
I1
sV10_159_383
p511
I1
sV10_159_382
p512
I1
sV10_159_385
p513
I1
sV10_159_384
p514
I1
sV10_159_387
p515
I1
sV10_159_386
p516
I1
sV10_159_389
p517
I1
sV10_159_388
p518
I1
sV11_354_821
p519
I6
sV8_43_100
p520
I1
sV8_43_101
p521
I1
sV8_43_102
p522
I1
sV11_333_773
p523
I4
sV11_333_772
p524
I4
sV11_333_771
p525
I4
sV11_333_770
p526
I4
sV11_333_777
p527
I4
sV11_333_776
p528
I4
sV11_333_774
p529
I4
sV11_333_779
p530
I4
sV11_333_778
p531
I4
sV10_164_385
p532
I2
sV10_164_384
p533
I2
sV10_164_387
p534
I2
sV10_164_386
p535
I2
sV10_164_381
p536
I2
sV10_164_380
p537
I2
sV10_164_383
p538
I2
sV10_164_382
p539
I2
sV10_164_389
p540
I2
sV10_164_388
p541
I2
sV11_325_778
p542
I3
sV11_325_779
p543
I3
sV11_325_772
p544
I3
sV11_325_773
p545
I3
sV11_325_770
p546
I3
sV11_325_771
p547
I3
sV11_325_777
p548
I3
sV11_325_774
p549
I3
sV11_325_775
p550
I3
sV8_42_95
p551
I1
sV8_42_96
p552
I1
sV8_42_97
p553
I1
sV8_42_98
p554
I1
sV8_42_99
p555
I1
sV11_353_816
p556
I6
sV11_353_817
p557
I6
sV10_184_413
p558
I3
sV10_184_412
p559
I3
sV10_184_411
p560
I3
sV10_184_410
p561
I3
sV10_173_394
p562
I2
sV10_173_395
p563
I2
sV9_88_203
p564
I1
sV9_88_202
p565
I1
sV9_88_201
p566
I1
sV9_88_200
p567
I1
sV9_88_205
p568
I1
sV9_88_204
p569
I1
sV9_88_199
p570
I1
sV9_88_198
p571
I1
sV11_335_779
p572
I4
sV11_335_778
p573
I4
sV11_335_775
p574
I4
sV11_335_774
p575
I4
sV11_335_777
p576
I4
sV11_335_776
p577
I4
sV11_335_773
p578
I4
sV11_335_772
p579
I4
sV10_175_408
p580
I2
sV10_175_409
p581
I2
sV10_175_400
p582
I2
sV10_175_401
p583
I2
sV10_175_402
p584
I2
sV10_175_403
p585
I2
sV10_175_404
p586
I2
sV10_175_405
p587
I2
sV10_175_406
p588
I2
sV10_175_407
p589
I2
sV11_337_791
p590
I5
sV11_337_790
p591
I5
sV11_337_793
p592
I5
sV11_337_792
p593
I5
sV11_337_795
p594
I5
sV11_337_794
p595
I5
sV11_337_797
p596
I5
sV11_337_796
p597
I5
sV11_337_799
p598
I5
sV11_337_798
p599
I5
sV11_354_819
p600
I6
sV11_354_818
p601
I6
sV11_343_798
p602
I5
sV11_343_799
p603
I5
sV11_343_794
p604
I5
sV11_343_795
p605
I5
sV11_343_796
p606
I5
sV11_343_797
p607
I5
sV11_343_790
p608
I5
sV11_343_791
p609
I5
sV11_343_792
p610
I5
sV11_343_793
p611
I5
sV11_321_776
p612
I3
sV11_321_777
p613
I3
sV11_321_774
p614
I3
sV11_321_775
p615
I3
sV11_321_772
p616
I3
sV11_321_773
p617
I3
sV11_321_770
p618
I3
sV11_321_771
p619
I3
sV11_321_778
p620
I3
sV11_321_779
p621
I3
sV11_331_762
p622
I4
sV11_331_760
p623
I4
sV11_331_761
p624
I4
sV11_331_766
p625
I4
sV11_331_767
p626
I4
sV11_331_768
p627
I4
sV11_331_769
p628
I4
sV11_342_809
p629
I5
sV11_342_808
p630
I5
sV11_342_805
p631
I5
sV11_370_825
p632
I6
sV11_342_807
p633
I5
sV11_342_801
p634
I5
sV11_342_800
p635
I5
sV11_342_803
p636
I5
sV11_342_802
p637
I5
sV11_358_819
p638
I6
sV11_358_818
p639
I6
sV11_358_813
p640
I6
sV11_358_812
p641
I6
sV11_358_811
p642
I6
sV11_358_817
p643
I6
sV11_358_816
p644
I6
sV11_358_815
p645
I6
sV11_348_789
p646
I5
sV11_365_815
p647
I6
sV11_317_771
p648
I3
sV11_365_814
p649
I6
sV10_178_408
p650
I3
sV9_80_193
p651
I1
sV9_80_192
p652
I1
sV9_80_191
p653
I1
sV9_80_190
p654
I1
sV9_80_196
p655
I1
sV9_80_195
p656
I1
sV9_80_194
p657
I1
sV11_341_761
p658
I5
sV11_341_760
p659
I5
sV11_341_766
p660
I5
sV11_352_802
p661
I6
sV11_341_765
p662
I5
sV8_40_97
p663
I1
sV11_341_764
p664
I5
sV11_352_801
p665
I6
sV11_352_806
p666
I6
sV11_352_807
p667
I6
sV11_324_786
p668
I3
sV11_324_787
p669
I3
sV11_324_784
p670
I3
sV11_324_785
p671
I3
sV11_324_782
p672
I3
sV11_324_783
p673
I3
sV11_324_780
p674
I3
sV11_324_781
p675
I3
sV11_352_805
p676
I6
sV11_324_788
p677
I3
sV11_324_789
p678
I3
sV10_186_408
p679
I3
sV10_186_409
p680
I3
sV10_186_406
p681
I3
sV10_186_407
p682
I3
sV11_352_808
p683
I6
sV11_352_809
p684
I6
sV8_44_99
p685
I1
sV11_344_791
p686
I5
sV11_355_823
p687
I6
sV8_40_98
p688
I1
sV11_355_822
p689
I6
sV8_40_99
p690
I1
sV11_327_769
p691
I3
sV11_327_768
p692
I3
sV11_327_767
p693
I3
sV11_327_766
p694
I3
sV11_327_765
p695
I3
sV11_327_764
p696
I3
sV11_327_763
p697
I3
sV11_327_761
p698
I3
sV11_327_760
p699
I3
sV11_319_773
p700
I3
sV11_319_772
p701
I3
sV11_319_771
p702
I3
sV11_319_770
p703
I3
sV11_319_777
p704
I3
sV11_319_776
p705
I3
sV11_319_775
p706
I3
sV11_319_774
p707
I3
sV11_352_819
p708
I6
sV11_352_818
p709
I6
sV11_319_779
p710
I3
sV11_319_778
p711
I3
sV10_158_380
p712
I1
sV10_158_381
p713
I1
sV10_158_382
p714
I1
sV10_158_383
p715
I1
sV10_158_384
p716
I1
sV10_158_385
p717
I1
sV10_158_386
p718
I1
sV10_158_387
p719
I1
sV11_364_827
p720
I6
sV11_364_826
p721
I6
sV11_364_825
p722
I6
sV11_364_824
p723
I6
sV11_364_823
p724
I6
sV11_364_822
p725
I6
sV11_364_821
p726
I6
sV11_364_820
p727
I6
sV11_350_811
p728
I6
sV11_357_803
p729
I6
sV11_369_808
p730
I6
sV11_369_809
p731
I6
sV11_325_787
p732
I3
sV11_325_786
p733
I3
sV11_325_785
p734
I3
sV11_325_784
p735
I3
sV11_325_783
p736
I3
sV11_325_782
p737
I3
sV11_325_781
p738
I3
sV11_325_780
p739
I3
sV11_374_815
p740
I7
sV11_374_816
p741
I7
sV11_325_789
p742
I3
sV11_325_788
p743
I3
sV11_325_769
p744
I3
sV11_325_768
p745
I3
sV11_325_761
p746
I3
sV11_325_760
p747
I3
sV11_325_763
p748
I3
sV11_325_762
p749
I3
sV11_325_765
p750
I3
sV11_325_764
p751
I3
sV11_325_767
p752
I3
sV11_325_766
p753
I3
sV7_22_51
p754
I1
sV7_22_50
p755
I1
sV11_359_799
p756
I6
sV11_359_798
p757
I6
sV11_351_818
p758
I6
sV11_351_819
p759
I6
sV11_351_816
p760
I6
sV11_351_817
p761
I6
sV11_351_814
p762
I6
sV11_351_815
p763
I6
sV11_351_812
p764
I6
sV11_351_813
p765
I6
sV11_351_810
p766
I6
sV11_351_811
p767
I6
sV11_365_805
p768
I6
sV11_365_806
p769
I6
sV11_365_807
p770
I6
sV11_365_808
p771
I6
sV11_365_809
p772
I6
sV10_172_399
p773
I2
sV10_172_398
p774
I2
sV10_172_393
p775
I2
sV10_172_392
p776
I2
sV10_172_397
p777
I2
sV10_172_396
p778
I2
sV10_172_395
p779
I2
sV10_172_394
p780
I2
sV10_175_411
p781
I2
sV10_175_410
p782
I2
sV10_172_403
p783
I2
sV10_172_402
p784
I2
sV10_172_401
p785
I2
sV10_172_400
p786
I2
sV10_172_407
p787
I2
sV10_172_406
p788
I2
sV10_172_405
p789
I2
sV10_172_404
p790
I2
sV10_172_408
p791
I2
sV11_343_787
p792
I5
sV11_343_786
p793
I5
sV11_343_785
p794
I5
sV11_338_761
p795
I5
sV11_368_822
p796
I6
sV11_343_788
p797
I5
sV11_368_827
p798
I6
sV11_368_826
p799
I6
sV11_368_825
p800
I6
sV11_368_824
p801
I6
sV11_344_788
p802
I5
sV11_344_789
p803
I5
sV11_370_820
p804
I6
sV11_321_765
p805
I3
sV11_321_764
p806
I3
sV11_321_767
p807
I3
sV11_321_766
p808
I3
sV11_321_761
p809
I3
sV11_321_760
p810
I3
sV11_321_763
p811
I3
sV11_321_762
p812
I3
sV11_321_769
p813
I3
sV11_321_768
p814
I3
sV11_331_771
p815
I4
sV11_331_770
p816
I4
sV11_331_773
p817
I4
sV11_331_772
p818
I4
sV11_331_775
p819
I4
sV11_331_774
p820
I4
sV11_331_777
p821
I4
sV11_331_776
p822
I4
sV11_331_779
p823
I4
sV11_331_778
p824
I4
sV11_370_821
p825
I6
sV11_354_817
p826
I6
sV11_354_816
p827
I6
sV9_89_202
p828
I1
sV9_89_203
p829
I1
sV9_89_200
p830
I1
sV9_89_201
p831
I1
sV9_89_206
p832
I1
sV9_89_207
p833
I1
sV9_89_204
p834
I1
sV9_89_205
p835
I1
sV11_354_814
p836
I6
sV11_324_790
p837
I3
sV10_186_410
p838
I3
sV10_186_413
p839
I3
sV10_186_412
p840
I3
sV11_341_785
p841
I5
sV11_325_790
p842
I3
sV11_327_792
p843
I4
sV11_327_793
p844
I4
sV11_327_790
p845
I3
sV11_327_791
p846
I4
sV11_327_796
p847
I4
sV11_327_794
p848
I4
sV11_327_795
p849
I4
sV11_352_820
p850
I6
sV11_328_778
p851
I4
sV11_361_825
p852
I6
sV11_370_819
p853
I6
sV11_368_807
p854
I6
sV11_369_817
p855
I6
sV11_369_816
p856
I6
sV11_369_815
p857
I6
sV11_369_813
p858
I6
sV11_369_812
p859
I6
sV11_369_811
p860
I6
sV11_369_819
p861
I6
sV11_369_818
p862
I6
sV11_341_784
p863
I5
sV11_340_785
p864
I5
sV11_340_783
p865
I5
sV10_178_410
p866
I3
sV7_22_49
p867
I1
sV11_351_809
p868
I6
sV11_351_808
p869
I6
sV11_351_805
p870
I6
sV11_351_804
p871
I6
sV11_351_807
p872
I6
sV11_351_806
p873
I6
sV11_351_801
p874
I6
sV11_351_800
p875
I6
sV10_160_384
p876
I1
sV10_175_398
p877
I2
sV10_175_399
p878
I2
sV11_365_813
p879
I6
sV11_365_812
p880
I6
sV11_365_811
p881
I6
sV11_365_817
p882
I6
sV10_175_395
p883
I2
sV10_175_396
p884
I2
sV10_175_397
p885
I2
sV7_23_50
p886
I1
sV7_23_51
p887
I1
sV11_360_818
p888
I6
sV11_360_819
p889
I6
sV11_338_778
p890
I5
sV11_338_779
p891
I5
sV11_323_774
p892
I3
sV11_323_775
p893
I3
sV11_323_776
p894
I3
sV11_323_777
p895
I3
sV11_323_770
p896
I3
sV11_323_771
p897
I3
sV11_323_772
p898
I3
sV11_323_773
p899
I3
sV11_323_778
p900
I3
sV11_323_779
p901
I3
sV8_46_101
p902
I1
sV8_46_100
p903
I1
sV8_46_103
p904
I1
sV8_46_102
p905
I1
sV11_330_802
p906
I4
sV11_330_800
p907
I4
sV11_330_801
p908
I4
sV11_344_785
p909
I5
sV11_344_786
p910
I5
sV11_344_787
p911
I5
sV11_338_770
p912
I5
sV11_350_808
p913
I6
sV11_350_809
p914
I6
sV11_338_771
p915
I5
sV11_350_804
p916
I6
sV11_350_805
p917
I6
sV11_350_806
p918
I6
sV11_350_807
p919
I6
sV11_350_801
p920
I6
sV11_350_802
p921
I6
sV11_350_803
p922
I6
sV11_366_810
p923
I6
sV11_366_811
p924
I6
sV11_366_812
p925
I6
sV11_366_813
p926
I6
sV11_348_803
p927
I5
sV11_348_802
p928
I5
sV11_348_801
p929
I5
sV11_334_798
p930
I4
sV11_334_799
p931
I4
sV11_334_796
p932
I4
sV11_334_797
p933
I4
sV11_334_794
p934
I4
sV11_334_795
p935
I4
sV11_334_792
p936
I4
sV11_334_793
p937
I4
sV11_334_790
p938
I4
sV11_334_791
p939
I4
sV11_348_800
p940
I5
sV11_369_820
p941
I6
sV11_354_802
p942
I6
sV11_320_782
p943
I3
sV11_320_783
p944
I3
sV11_320_780
p945
I3
sV11_320_781
p946
I3
sV10_179_408
p947
I3
sV11_320_784
p948
I3
sV10_179_404
p949
I3
sV10_179_405
p950
I3
sV10_179_406
p951
I3
sV10_179_407
p952
I3
sV10_179_400
p953
I3
sV10_179_401
p954
I3
sV10_179_402
p955
I3
sV11_349_817
p956
I6
sV11_327_781
p957
I3
sV11_327_780
p958
I3
sV11_327_783
p959
I3
sV11_327_782
p960
I3
sV11_327_785
p961
I3
sV11_327_784
p962
I3
sV11_327_787
p963
I3
sV11_327_786
p964
I3
sV11_327_789
p965
I3
sV11_327_788
p966
I3
sV11_347_812
p967
I5
sV9_91_205
p968
I1
sV9_91_204
p969
I1
sV9_91_206
p970
I1
sV9_91_201
p971
I1
sV9_91_203
p972
I1
sV9_91_202
p973
I1
sV11_372_820
p974
I7
sV11_372_821
p975
I7
sV11_372_826
p976
I7
sV11_372_824
p977
I7
sV11_372_825
p978
I7
sV11_340_768
p979
I5
sV11_340_769
p980
I5
sV11_340_766
p981
I5
sV11_340_767
p982
I5
sV11_340_764
p983
I5
sV11_340_765
p984
I5
sV11_340_762
p985
I5
sV11_340_763
p986
I5
sV11_340_760
p987
I5
sV11_340_761
p988
I5
sV11_338_808
p989
I5
sV11_338_809
p990
I5
sV11_338_806
p991
I5
sV11_338_807
p992
I5
sV11_338_804
p993
I5
sV11_338_805
p994
I5
sV11_338_803
p995
I5
sV11_338_800
p996
I5
sV11_338_801
p997
I5
sV11_351_802
p998
I6
sV11_345_810
p999
I5
sV11_342_783
p1000
I5
sV11_342_786
p1001
I5
sV11_342_787
p1002
I5
sV11_329_778
p1003
I4
sV11_329_779
p1004
I4
sV11_329_776
p1005
I4
sV11_329_777
p1006
I4
sV11_329_774
p1007
I4
sV11_329_775
p1008
I4
sV11_329_772
p1009
I4
sV11_329_773
p1010
I4
sV11_329_770
p1011
I4
sV11_329_771
p1012
I4
sV11_349_808
p1013
I6
sV11_349_809
p1014
I6
sV11_349_802
p1015
I6
sV11_349_803
p1016
I6
sV11_349_801
p1017
I6
sV11_349_806
p1018
I6
sV11_349_807
p1019
I6
sV11_349_804
p1020
I6
sV11_349_805
p1021
I6
sV11_323_769
p1022
I3
sV11_323_768
p1023
I3
sV11_335_788
p1024
I4
sV11_335_789
p1025
I4
sV11_323_763
p1026
I3
sV11_335_785
p1027
I4
sV11_323_761
p1028
I3
sV11_335_787
p1029
I4
sV11_323_767
p1030
I3
sV11_323_766
p1031
I3
sV11_335_782
p1032
I4
sV11_335_783
p1033
I4
sV10_183_410
p1034
I3
sV10_183_411
p1035
I3
sV10_183_412
p1036
I3
sV10_183_413
p1037
I3
sV9_83_198
p1038
I1
sV9_83_199
p1039
I1
sV11_344_799
p1040
I5
sV11_344_798
p1041
I5
sV9_83_194
p1042
I1
sV9_83_195
p1043
I1
sV9_83_196
p1044
I1
sV9_83_197
p1045
I1
sV9_83_190
p1046
I1
sV9_83_191
p1047
I1
sV9_83_192
p1048
I1
sV9_83_193
p1049
I1
sV11_350_813
p1050
I6
sV11_350_812
p1051
I6
sV11_348_799
p1052
I5
sV11_348_798
p1053
I5
sV11_350_817
p1054
I6
sV11_350_816
p1055
I6
sV11_350_815
p1056
I6
sV11_350_814
p1057
I6
sV11_348_793
p1058
I5
sV11_348_792
p1059
I5
sV11_350_819
p1060
I6
sV11_348_790
p1061
I5
sV9_83_200
p1062
I1
sV9_83_201
p1063
I1
sV9_83_202
p1064
I1
sV11_348_794
p1065
I5
sV10_176_397
p1066
I2
sV10_176_396
p1067
I2
sV11_317_766
p1068
I3
sV11_317_767
p1069
I3
sV11_317_765
p1070
I3
sV11_317_762
p1071
I3
sV11_317_763
p1072
I3
sV11_317_760
p1073
I3
sV11_317_761
p1074
I3
sV10_178_414
p1075
I3
sV10_178_412
p1076
I3
sV10_178_413
p1077
I3
sV11_317_768
p1078
I3
sV10_178_411
p1079
I3
sV11_334_789
p1080
I4
sV11_334_788
p1081
I4
sV11_334_785
p1082
I4
sV11_334_784
p1083
I4
sV11_334_787
p1084
I4
sV11_334_786
p1085
I4
sV11_334_781
p1086
I4
sV11_334_780
p1087
I4
sV11_334_783
p1088
I4
sV11_334_782
p1089
I4
sV10_173_402
p1090
I2
sV10_173_403
p1091
I2
sV10_173_400
p1092
I2
sV10_173_401
p1093
I2
sV10_173_406
p1094
I2
sV10_173_407
p1095
I2
sV10_173_404
p1096
I2
sV10_173_405
p1097
I2
sV10_173_408
p1098
I2
sV11_354_815
p1099
I6
sV10_170_405
p1100
I2
sV10_170_404
p1101
I2
sV10_170_407
p1102
I2
sV10_170_406
p1103
I2
sV10_170_401
p1104
I2
sV10_170_400
p1105
I2
sV10_170_403
p1106
I2
sV10_170_402
p1107
I2
sV11_354_813
p1108
I6
sV10_170_409
p1109
I2
sV10_170_408
p1110
I2
sV11_354_812
p1111
I6
sV11_354_811
p1112
I6
sV11_367_815
p1113
I6
sV11_354_810
p1114
I6
sV11_367_814
p1115
I6
sV11_367_817
p1116
I6
sV11_367_816
p1117
I6
sV10_179_413
p1118
I3
sV10_179_412
p1119
I3
sV10_179_411
p1120
I3
sV10_179_410
p1121
I3
sV9_84_195
p1122
I1
sV10_179_414
p1123
I3
sV11_366_806
p1124
I6
sV8_43_98
p1125
I1
sV10_162_390
p1126
I2
sV10_162_391
p1127
I2
sV10_162_392
p1128
I2
sV10_162_393
p1129
I2
sV10_162_394
p1130
I2
sV10_162_395
p1131
I2
sV11_350_822
p1132
I6
sV11_350_820
p1133
I6
sV11_350_821
p1134
I6
sV10_179_409
p1135
I3
sV11_333_801
p1136
I4
sV11_333_800
p1137
I4
sV11_333_803
p1138
I4
sV11_333_802
p1139
I4
sV11_333_805
p1140
I4
sV11_333_804
p1141
I4
sV11_333_806
p1142
I4
sV11_356_820
p1143
I6
sV11_356_821
p1144
I6
sV11_345_806
p1145
I5
sV11_345_807
p1146
I5
sV11_345_804
p1147
I5
sV11_345_805
p1148
I5
sV11_345_802
p1149
I5
sV11_345_803
p1150
I5
sV11_345_800
p1151
I5
sV11_345_801
p1152
I5
sV11_345_808
p1153
I5
sV11_345_809
p1154
I5
sV11_350_795
p1155
I6
sV11_339_817
p1156
I5
sV11_348_814
p1157
I5
sV11_348_815
p1158
I5
sV11_348_816
p1159
I5
sV11_348_817
p1160
I5
sV11_348_810
p1161
I5
sV11_348_811
p1162
I5
sV11_348_812
p1163
I5
sV11_348_813
p1164
I5
sV11_348_818
p1165
I5
sV10_174_399
p1166
I2
sV10_174_398
p1167
I2
sV11_350_796
p1168
I6
sV10_174_395
p1169
I2
sV10_174_394
p1170
I2
sV10_174_397
p1171
I2
sV10_174_396
p1172
I2
sV11_340_779
p1173
I5
sV11_340_778
p1174
I5
sV11_362_819
p1175
I6
sV11_340_775
p1176
I5
sV11_340_774
p1177
I5
sV11_340_777
p1178
I5
sV11_340_776
p1179
I5
sV11_340_771
p1180
I5
sV11_340_770
p1181
I5
sV11_340_773
p1182
I5
sV11_340_772
p1183
I5
sV10_165_384
p1184
I2
sV10_165_385
p1185
I2
sV10_165_386
p1186
I2
sV10_165_387
p1187
I2
sV10_165_380
p1188
I2
sV10_165_381
p1189
I2
sV10_165_383
p1190
I2
sV11_338_815
p1191
I5
sV11_338_814
p1192
I5
sV11_338_817
p1193
I5
sV10_165_388
p1194
I2
sV10_165_389
p1195
I2
sV11_338_813
p1196
I5
sV11_338_812
p1197
I5
sV11_350_790
p1198
I6
sV11_342_791
p1199
I5
sV11_342_790
p1200
I5
sV11_342_793
p1201
I5
sV11_342_792
p1202
I5
sV11_329_769
p1203
I4
sV11_329_768
p1204
I4
sV11_342_797
p1205
I5
sV11_342_796
p1206
I5
sV8_39_96
p1207
I1
sV8_39_97
p1208
I1
sV11_329_767
p1209
I4
sV8_39_95
p1210
I1
sV11_329_761
p1211
I4
sV11_329_760
p1212
I4
sV11_329_763
p1213
I4
sV11_329_762
p1214
I4
sV11_349_818
p1215
I6
sV10_182_408
p1216
I3
sV11_350_798
p1217
I6
sV11_350_799
p1218
I6
sV11_341_798
p1219
I5
sV11_341_799
p1220
I5
sV10_182_402
p1221
I3
sV10_182_403
p1222
I3
sV11_341_794
p1223
I5
sV11_341_795
p1224
I5
sV10_182_406
p1225
I3
sV10_182_407
p1226
I3
sV10_182_404
p1227
I3
sV10_182_405
p1228
I3
sV11_335_793
p1229
I4
sV11_335_792
p1230
I4
sV10_183_409
p1231
I3
sV10_183_408
p1232
I3
sV11_335_797
p1233
I4
sV11_335_796
p1234
I4
sV11_335_795
p1235
I4
sV11_335_794
p1236
I4
sV10_183_403
p1237
I3
sV10_183_402
p1238
I3
sV11_335_799
p1239
I4
sV11_335_798
p1240
I4
sV10_183_407
p1241
I3
sV10_183_406
p1242
I3
sV10_183_405
p1243
I3
sV10_183_404
p1244
I3
sV11_360_799
p1245
I6
sV11_344_810
p1246
I5
sV11_344_811
p1247
I5
sV11_344_812
p1248
I5
sV11_344_813
p1249
I5
sV11_344_814
p1250
I5
sV11_344_815
p1251
I5
sV10_176_398
p1252
I2
sV11_344_817
p1253
I5
sV11_341_787
p1254
I5
sV11_350_793
p1255
I6
sV11_339_810
p1256
I5
sV11_339_812
p1257
I5
sV11_339_813
p1258
I5
sV11_339_814
p1259
I5
sV10_168_398
p1260
I2
sV10_168_399
p1261
I2
sV10_168_392
p1262
I2
sV10_168_393
p1263
I2
sV10_168_390
p1264
I2
sV10_168_391
p1265
I2
sV10_168_396
p1266
I2
sV10_168_397
p1267
I2
sV10_168_394
p1268
I2
sV10_168_395
p1269
I2
sV11_370_824
p1270
I6
sV11_370_826
p1271
I6
sV11_317_774
p1272
I3
sV10_178_409
p1273
I3
sV11_317_770
p1274
I3
sV11_317_773
p1275
I3
sV11_317_772
p1276
I3
sV10_178_405
p1277
I3
sV10_178_404
p1278
I3
sV10_178_407
p1279
I3
sV10_178_406
p1280
I3
sV10_178_401
p1281
I3
sV10_178_400
p1282
I3
sV10_178_403
p1283
I3
sV10_178_402
p1284
I3
sV11_370_822
p1285
I6
sV11_370_823
p1286
I6
sV11_335_803
p1287
I4
sV11_335_801
p1288
I4
sV11_335_807
p1289
I4
sV11_335_806
p1290
I4
sV11_335_805
p1291
I4
sV11_335_804
p1292
I4
sV11_335_808
p1293
I4
sV11_348_809
p1294
I5
sV11_348_808
p1295
I5
sV11_341_789
p1296
I5
sV11_341_788
p1297
I5
sV11_324_777
p1298
I3
sV11_324_776
p1299
I3
sV9_82_199
p1300
I1
sV11_324_775
p1301
I3
sV9_82_198
p1302
I1
sV11_358_814
p1303
I6
sV10_179_399
p1304
I3
sV11_361_826
p1305
I6
sV11_361_827
p1306
I6
sV11_361_824
p1307
I6
sV11_341_786
p1308
I5
sV11_361_822
p1309
I6
sV11_361_823
p1310
I6
sV11_361_820
p1311
I6
sV11_361_821
p1312
I6
sV11_348_807
p1313
I5
sV11_348_806
p1314
I5
sV11_348_805
p1315
I5
sV11_348_804
p1316
I5
sV10_162_389
p1317
I2
sV10_162_388
p1318
I2
sV10_162_387
p1319
I2
sV10_162_386
p1320
I2
sV10_162_385
p1321
I2
sV10_162_384
p1322
I2
sV10_162_383
p1323
I2
sV10_162_382
p1324
I2
sV10_162_381
p1325
I2
sV10_162_380
p1326
I2
sV9_86_201
p1327
I1
sV9_86_200
p1328
I1
sV9_86_203
p1329
I1
sV9_86_202
p1330
I1
sV9_86_204
p1331
I1
sV11_346_798
p1332
I5
sV11_345_815
p1333
I5
sV11_345_817
p1334
I5
sV11_345_816
p1335
I5
sV11_345_811
p1336
I5
sV9_90_199
p1337
I1
sV11_345_813
p1338
I5
sV11_345_812
p1339
I5
sV11_357_825
p1340
I6
sV11_357_824
p1341
I6
sV11_357_827
p1342
I6
sV11_357_826
p1343
I6
sV11_357_821
p1344
I6
sV11_357_820
p1345
I6
sV11_357_823
p1346
I6
sV11_357_822
p1347
I6
sV9_90_204
p1348
I1
sV9_90_205
p1349
I1
sV9_90_206
p1350
I1
sV9_90_200
p1351
I1
sV9_90_201
p1352
I1
sV9_90_202
p1353
I1
sV9_90_203
p1354
I1
sV11_357_799
p1355
I6
sV10_165_399
p1356
I2
sV10_165_398
p1357
I2
sV11_346_794
p1358
I5
sV10_165_393
p1359
I2
sV10_165_392
p1360
I2
sV10_165_391
p1361
I2
sV10_165_390
p1362
I2
sV10_165_397
p1363
I2
sV10_165_396
p1364
I2
sV10_165_395
p1365
I2
sV10_165_394
p1366
I2
sV10_165_401
p1367
I2
sV10_165_400
p1368
I2
sV11_322_766
p1369
I3
sV11_322_767
p1370
I3
sV11_322_764
p1371
I3
sV11_322_765
p1372
I3
sV11_322_762
p1373
I3
sV11_322_763
p1374
I3
sV11_322_760
p1375
I3
sV11_322_761
p1376
I3
sV11_322_768
p1377
I3
sV11_322_769
p1378
I3
sV9_82_191
p1379
I1
sV9_82_190
p1380
I1
sV9_82_193
p1381
I1
sV9_82_192
p1382
I1
sV9_82_195
p1383
I1
sV9_82_194
p1384
I1
sV9_82_197
p1385
I1
sV9_82_196
p1386
I1
sV10_182_411
p1387
I3
sV10_182_410
p1388
I3
sV10_182_413
p1389
I3
sV10_182_412
p1390
I3
sV11_341_781
p1391
I5
sV11_341_780
p1392
I5
sV11_341_783
p1393
I5
sV11_341_782
p1394
I5
sV11_344_807
p1395
I5
sV11_344_805
p1396
I5
sV11_344_804
p1397
I5
sV11_344_803
p1398
I5
sV11_344_802
p1399
I5
sV11_344_801
p1400
I5
sV11_344_800
p1401
I5
sV11_344_809
p1402
I5
sV11_344_808
p1403
I5
sV10_168_389
p1404
I2
sV10_168_388
p1405
I2
sV11_354_820
p1406
I6
sV10_168_381
p1407
I2
sV10_168_383
p1408
I2
sV10_168_382
p1409
I2
sV10_168_385
p1410
I2
sV10_168_384
p1411
I2
sV10_168_387
p1412
I2
sV10_168_386
p1413
I2
sV11_361_817
p1414
I6
sV11_361_816
p1415
I6
sV11_361_815
p1416
I6
sV11_361_814
p1417
I6
sV11_361_813
p1418
I6
sV11_361_812
p1419
I6
sV11_361_811
p1420
I6
sV11_361_810
p1421
I6
sV8_41_100
p1422
I1
sV8_41_101
p1423
I1
sV11_365_816
p1424
I6
sV11_363_807
p1425
I6
sV11_351_791
p1426
I6
sV11_351_793
p1427
I6
sV11_351_792
p1428
I6
sV11_351_795
p1429
I6
sV11_351_794
p1430
I6
sV11_351_797
p1431
I6
sV11_351_796
p1432
I6
sV11_351_799
p1433
I6
sV11_351_798
p1434
I6
sV11_357_810
p1435
I6
sV11_357_811
p1436
I6
sV11_357_812
p1437
I6
sV11_357_813
p1438
I6
sV11_357_814
p1439
I6
sV11_357_815
p1440
I6
sV11_357_816
p1441
I6
sV11_357_817
p1442
I6
sV11_357_818
p1443
I6
sV11_357_819
p1444
I6
sV11_360_821
p1445
I6
sV11_360_826
p1446
I6
sV11_372_819
p1447
I7
sV11_372_818
p1448
I7
sV11_353_802
p1449
I6
sV11_372_813
p1450
I7
sV11_372_812
p1451
I7
sV11_372_817
p1452
I7
sV11_372_816
p1453
I7
sV11_372_815
p1454
I7
sV11_372_814
p1455
I7
sV11_338_785
p1456
I5
sV11_353_806
p1457
I6
sV11_338_787
p1458
I5
sV11_338_786
p1459
I5
sV11_328_768
p1460
I4
sV11_328_769
p1461
I4
sV11_338_788
p1462
I5
sV11_328_760
p1463
I4
sV11_328_761
p1464
I4
sV11_328_762
p1465
I4
sV11_328_763
p1466
I4
sV11_328_764
p1467
I4
sV11_328_765
p1468
I4
sV11_328_766
p1469
I4
sV11_328_767
p1470
I4
sV10_160_392
p1471
I1
sV10_160_390
p1472
I1
sV10_160_391
p1473
I1
sV11_322_775
p1474
I3
sV11_322_774
p1475
I3
sV11_322_777
p1476
I3
sV11_322_776
p1477
I3
sV11_322_771
p1478
I3
sV11_322_770
p1479
I3
sV11_322_773
p1480
I3
sV11_322_772
p1481
I3
sV11_322_779
p1482
I3
sV11_322_778
p1483
I3
sV7_21_49
p1484
I1
sV7_21_48
p1485
I1
sV7_21_47
p1486
I1
sV9_93_203
p1487
I1
sV9_93_206
p1488
I1
sV9_93_205
p1489
I1
sV9_93_204
p1490
I1
sV11_326_780
p1491
I3
sV11_326_781
p1492
I3
sV11_326_782
p1493
I3
sV11_326_783
p1494
I3
sV11_326_784
p1495
I3
sV11_326_785
p1496
I3
sV11_326_786
p1497
I3
sV11_326_787
p1498
I3
sV11_326_788
p1499
I3
sV11_326_789
p1500
I3
sV11_326_768
p1501
I3
sV11_326_769
p1502
I3
sV11_350_810
p1503
I6
sV11_326_762
p1504
I3
sV11_326_763
p1505
I3
sV11_326_760
p1506
I3
sV11_326_761
p1507
I3
sV11_326_766
p1508
I3
sV11_326_767
p1509
I3
sV11_326_764
p1510
I3
sV11_326_765
p1511
I3
sV11_371_826
p1512
I7
sV11_362_825
p1513
I6
sV9_84_197
p1514
I1
sV11_362_827
p1515
I6
sV11_362_826
p1516
I6
sV11_362_821
p1517
I6
sV11_362_820
p1518
I6
sV11_362_823
p1519
I6
sV9_84_196
p1520
I1
sV8_43_99
p1521
I1
sV10_161_383
p1522
I1
sV9_84_193
p1523
I1
sV9_84_192
p1524
I1
sV11_352_811
p1525
I6
sV10_161_386
p1526
I1
sV11_352_810
p1527
I6
sV9_84_190
p1528
I1
sV11_352_813
p1529
I6
sV11_324_764
p1530
I3
sV11_324_765
p1531
I3
sV11_324_766
p1532
I3
sV11_324_767
p1533
I3
sV11_334_778
p1534
I4
sV11_324_761
p1535
I3
sV11_324_762
p1536
I3
sV11_324_763
p1537
I3
sV11_334_774
p1538
I4
sV11_334_775
p1539
I4
sV11_334_776
p1540
I4
sV11_334_777
p1541
I4
sV11_324_768
p1542
I3
sV11_324_769
p1543
I3
sV11_334_772
p1544
I4
sV11_334_773
p1545
I4
sV9_85_192
p1546
I1
sV9_85_193
p1547
I1
sV9_85_190
p1548
I1
sV9_85_191
p1549
I1
sV9_85_196
p1550
I1
sV9_85_197
p1551
I1
sV9_85_194
p1552
I1
sV9_85_195
p1553
I1
sV9_85_198
p1554
I1
sV9_85_199
p1555
I1
sV11_361_809
p1556
I6
sV11_361_800
p1557
I6
sV11_361_801
p1558
I6
sV11_361_802
p1559
I6
sV11_361_804
p1560
I6
sV11_361_805
p1561
I6
sV11_342_784
p1562
I5
sV11_342_785
p1563
I5
sV11_342_788
p1564
I5
sV11_346_812
p1565
I5
sV11_346_813
p1566
I5
sV11_346_810
p1567
I5
sV11_346_811
p1568
I5
sV11_346_816
p1569
I5
sV11_346_817
p1570
I5
sV11_346_814
p1571
I5
sV11_346_815
p1572
I5
sV11_352_812
p1573
I6
sV11_352_815
p1574
I6
sV10_163_388
p1575
I2
sV10_163_389
p1576
I2
sV10_163_386
p1577
I2
sV10_163_387
p1578
I2
sV10_163_384
p1579
I2
sV10_163_385
p1580
I2
sV10_163_382
p1581
I2
sV10_163_383
p1582
I2
sV10_163_380
p1583
I2
sV10_163_381
p1584
I2
sV11_357_805
p1585
I6
sV11_357_804
p1586
I6
sV11_352_814
p1587
I6
sV11_357_802
p1588
I6
sV11_357_801
p1589
I6
sV11_357_800
p1590
I6
sV11_357_809
p1591
I6
sV11_352_817
p1592
I6
sV11_352_816
p1593
I6
sV11_331_802
p1594
I4
sV11_335_784
p1595
I4
sV11_328_779
p1596
I4
sV11_323_762
p1597
I3
sV11_328_777
p1598
I4
sV11_328_776
p1599
I4
sV11_328_775
p1600
I4
sV11_328_774
p1601
I4
sV11_328_773
p1602
I4
sV11_328_772
p1603
I4
sV11_328_771
p1604
I4
sV11_328_770
p1605
I4
sV11_323_760
p1606
I3
sV11_340_788
p1607
I5
sV11_340_789
p1608
I5
sV11_340_784
p1609
I5
sV11_335_780
p1610
I4
sV11_340_786
p1611
I5
sV11_340_787
p1612
I5
sV11_340_780
p1613
I5
sV11_340_781
p1614
I5
sV11_340_782
p1615
I5
sV11_335_781
p1616
I4
sV10_160_381
p1617
I1
sV10_160_380
p1618
I1
sV10_160_383
p1619
I1
sV10_160_382
p1620
I1
sV10_160_385
p1621
I1
sV11_323_765
p1622
I3
sV10_160_387
p1623
I1
sV10_160_386
p1624
I1
sV10_160_389
p1625
I1
sV10_160_388
p1626
I1
sV11_323_764
p1627
I3
sV11_320_760
p1628
I3
sV11_320_761
p1629
I3
sV11_320_762
p1630
I3
sV11_320_763
p1631
I3
sV11_320_764
p1632
I3
sV11_320_765
p1633
I3
sV11_320_766
p1634
I3
sV11_320_767
p1635
I3
sV11_320_768
p1636
I3
sV11_320_769
p1637
I3
sV11_338_772
p1638
I5
sV11_338_773
p1639
I5
sV11_338_774
p1640
I5
sV11_338_775
p1641
I5
sV11_338_776
p1642
I5
sV11_338_777
p1643
I5
sV11_329_794
p1644
I4
sV11_329_795
p1645
I4
sV11_329_796
p1646
I4
sV11_329_797
p1647
I4
sV11_329_790
p1648
I4
sV11_329_791
p1649
I4
sV11_329_792
p1650
I4
sV11_329_793
p1651
I4
sV7_21_50
p1652
I1
sV7_21_51
p1653
I1
sV11_326_791
p1654
I3
sV11_326_790
p1655
I3
sV9_85_201
p1656
I1
sV11_326_779
p1657
I3
sV11_326_778
p1658
I3
sV11_326_771
p1659
I3
sV11_326_770
p1660
I3
sV11_326_773
p1661
I3
sV11_326_772
p1662
I3
sV11_326_775
p1663
I3
sV11_326_774
p1664
I3
sV11_326_777
p1665
I3
sV11_326_776
p1666
I3
sV11_344_797
p1667
I5
sV11_344_796
p1668
I5
sV11_344_795
p1669
I5
sV11_344_794
p1670
I5
sV11_344_793
p1671
I5
sV11_344_792
p1672
I5
sV11_362_818
p1673
I6
sV10_167_404
p1674
I2
sV10_167_401
p1675
I2
sV10_167_400
p1676
I2
sV10_167_403
p1677
I2
sV10_167_402
p1678
I2
sV11_362_810
p1679
I6
sV11_362_811
p1680
I6
sV11_362_812
p1681
I6
sV11_344_790
p1682
I5
sV11_362_815
p1683
I6
sV11_362_816
p1684
I6
sV11_362_817
p1685
I6
sV11_340_818
p1686
I5
sV11_340_814
p1687
I5
sV11_340_817
p1688
I5
sV11_340_810
p1689
I5
sV11_340_811
p1690
I5
sV11_340_812
p1691
I5
sV11_340_813
p1692
I5
sV9_79_195
p1693
I1
sV9_79_194
p1694
I1
sV9_79_193
p1695
I1
sV9_79_192
p1696
I1
sV9_79_191
p1697
I1
sV9_79_190
p1698
I1
sV11_321_783
p1699
I3
sV11_321_782
p1700
I3
sV11_321_781
p1701
I3
sV11_321_780
p1702
I3
sV11_321_785
p1703
I3
sV11_321_784
p1704
I3
sV11_324_779
p1705
I3
sV11_324_778
p1706
I3
sV11_324_773
p1707
I3
sV11_324_772
p1708
I3
sV11_324_771
p1709
I3
sV11_324_770
p1710
I3
sV10_181_412
p1711
I3
sV10_181_413
p1712
I3
sV10_181_410
p1713
I3
sV10_181_411
p1714
I3
sV11_334_763
p1715
I4
sV11_334_762
p1716
I4
sV11_334_761
p1717
I4
sV11_334_767
p1718
I4
sV11_334_766
p1719
I4
sV11_334_765
p1720
I4
sV11_334_764
p1721
I4
sV11_334_768
p1722
I4
sV11_350_818
p1723
I6
sV11_348_797
p1724
I5
sV11_348_796
p1725
I5
sV11_348_795
p1726
I5
sV10_169_388
p1727
I2
sV10_169_389
p1728
I2
sV11_361_819
p1729
I6
sV11_361_818
p1730
I6
sV10_169_380
p1731
I2
sV10_169_381
p1732
I2
sV10_169_382
p1733
I2
sV10_169_383
p1734
I2
sV10_169_384
p1735
I2
sV10_169_385
p1736
I2
sV10_169_386
p1737
I2
sV10_169_387
p1738
I2
sV11_346_801
p1739
I5
sV11_346_800
p1740
I5
sV11_346_803
p1741
I5
sV11_346_802
p1742
I5
sV11_346_805
p1743
I5
sV11_346_804
p1744
I5
sV11_346_807
p1745
I5
sV11_346_806
p1746
I5
sV11_346_809
p1747
I5
sV11_346_808
p1748
I5
sV11_352_799
p1749
I6
sV11_352_803
p1750
I6
sV11_352_794
p1751
I6
sV11_356_806
p1752
I6
sV11_356_804
p1753
I6
sV11_352_795
p1754
I6
sV11_356_802
p1755
I6
sV11_356_803
p1756
I6
sV11_356_801
p1757
I6
sV10_171_404
p1758
I2
sV10_171_405
p1759
I2
sV10_171_406
p1760
I2
sV10_171_407
p1761
I2
sV10_171_400
p1762
I2
sV10_171_401
p1763
I2
sV10_171_402
p1764
I2
sV10_171_403
p1765
I2
sV10_171_408
p1766
I2
sV10_171_409
p1767
I2
sV10_163_398
p1768
I2
sV10_163_395
p1769
I2
sV10_163_394
p1770
I2
sV10_163_397
p1771
I2
sV10_163_396
p1772
I2
sV10_163_391
p1773
I2
sV10_163_390
p1774
I2
sV10_163_393
p1775
I2
sV10_163_392
p1776
I2
sV11_332_800
p1777
I4
sV11_332_801
p1778
I4
sV11_332_802
p1779
I4
sV11_332_803
p1780
I4
sV11_332_804
p1781
I4
sV11_332_798
p1782
I4
sV11_332_799
p1783
I4
sV11_332_790
p1784
I4
sV11_332_791
p1785
I4
sV11_332_792
p1786
I4
sV11_332_793
p1787
I4
sV11_332_794
p1788
I4
sV11_332_795
p1789
I4
sV11_332_796
p1790
I4
sV11_332_797
p1791
I4
sV10_185_412
p1792
I3
sV10_185_413
p1793
I3
sV10_185_410
p1794
I3
sV10_185_411
p1795
I3
sV11_328_782
p1796
I4
sV11_328_783
p1797
I4
sV11_328_780
p1798
I4
sV11_328_781
p1799
I4
sV11_328_786
p1800
I4
sV11_328_787
p1801
I4
sV11_328_784
p1802
I4
sV11_328_785
p1803
I4
sV11_352_796
p1804
I6
sV11_328_788
p1805
I4
sV11_328_789
p1806
I4
sV11_352_792
p1807
I6
sV11_352_793
p1808
I6
sV11_340_793
p1809
I5
sV11_340_792
p1810
I5
sV11_340_791
p1811
I5
sV11_340_790
p1812
I5
sV11_340_797
p1813
I5
sV11_340_796
p1814
I5
sV11_340_795
p1815
I5
sV11_340_794
p1816
I5
sV11_340_799
p1817
I5
sV11_340_798
p1818
I5
sV11_320_777
p1819
I3
sV11_320_776
p1820
I3
sV11_320_775
p1821
I3
sV11_320_774
p1822
I3
sV10_171_398
p1823
I2
sV10_171_399
p1824
I2
sV11_320_771
p1825
I3
sV11_320_770
p1826
I3
sV10_171_394
p1827
I2
sV10_171_395
p1828
I2
sV10_171_396
p1829
I2
sV10_171_397
p1830
I2
sV11_338_763
p1831
I5
sV10_171_391
p1832
I2
sV10_171_392
p1833
I2
sV11_320_778
p1834
I3
sV11_359_816
p1835
I6
sV11_359_817
p1836
I6
sV11_359_814
p1837
I6
sV11_359_815
p1838
I6
sV11_359_812
p1839
I6
sV11_359_813
p1840
I6
sV11_359_810
p1841
I6
sV11_359_811
p1842
I6
sV11_359_818
p1843
I6
sV11_359_819
p1844
I6
sV11_329_783
p1845
I4
sV11_329_782
p1846
I4
sV11_329_781
p1847
I4
sV11_329_780
p1848
I4
sV11_329_787
p1849
I4
sV11_329_786
p1850
I4
sV11_329_785
p1851
I4
sV11_329_784
p1852
I4
sV11_329_789
p1853
I4
sV11_329_788
p1854
I4
sV10_176_410
p1855
I3
sV11_341_778
p1856
I5
sV11_341_779
p1857
I5
sV11_341_774
p1858
I5
sV11_320_773
p1859
I3
sV11_341_776
p1860
I5
sV11_341_777
p1861
I5
sV11_341_771
p1862
I5
sV11_341_772
p1863
I5
sV11_320_772
p1864
I3
sV11_338_769
p1865
I5
sV11_338_768
p1866
I5
sV11_360_804
p1867
I6
sV11_338_767
p1868
I5
sV11_338_766
p1869
I5
sV11_338_765
p1870
I5
sV11_338_764
p1871
I5
sV11_338_762
p1872
I5
sV9_92_202
p1873
I1
sV9_92_203
p1874
I1
sV9_92_201
p1875
I1
sV9_92_206
p1876
I1
sV11_320_779
p1877
I3
sV9_92_204
p1878
I1
sV9_92_205
p1879
I1
sV10_171_393
p1880
I2
sV11_334_802
p1881
I4
sV11_334_803
p1882
I4
sV11_334_800
p1883
I4
sV11_334_801
p1884
I4
sV11_334_806
p1885
I4
sV11_334_807
p1886
I4
sV11_334_804
p1887
I4
sV11_334_805
p1888
I4
sV11_355_818
p1889
I6
sV11_355_819
p1890
I6
sV11_362_809
p1891
I6
sV11_362_808
p1892
I6
sV11_356_805
p1893
I6
sV11_362_804
p1894
I6
sV11_340_803
p1895
I5
sV11_340_802
p1896
I5
sV11_340_801
p1897
I5
sV11_340_800
p1898
I5
sV11_340_807
p1899
I5
sV11_340_806
p1900
I5
sV11_340_805
p1901
I5
sV11_340_804
p1902
I5
sV11_340_809
p1903
I5
sV11_340_808
p1904
I5
sV10_180_408
p1905
I3
sV10_180_409
p1906
I3
sV10_180_404
p1907
I3
sV10_180_405
p1908
I3
sV10_180_406
p1909
I3
sV10_180_407
p1910
I3
sV10_180_400
p1911
I3
sV10_180_401
p1912
I3
sV10_180_402
p1913
I3
sV11_366_823
p1914
I6
sV11_366_822
p1915
I6
sV10_181_409
p1916
I3
sV10_181_408
p1917
I3
sV11_366_827
p1918
I6
sV11_366_826
p1919
I6
sV10_181_405
p1920
I3
sV10_181_404
p1921
I3
sV10_181_407
p1922
I3
sV10_181_406
p1923
I3
sV10_181_401
p1924
I3
sV10_181_403
p1925
I3
sV10_181_402
p1926
I3
sV11_336_778
p1927
I4
sV11_336_779
p1928
I4
sV11_336_776
p1929
I4
sV11_336_777
p1930
I4
sV11_336_774
p1931
I4
sV11_336_775
p1932
I4
sV11_336_772
p1933
I4
sV11_336_773
p1934
I4
sV11_336_770
p1935
I4
sV11_336_771
p1936
I4
sV11_347_817
p1937
I5
sV10_169_409
p1938
I2
sV10_169_408
p1939
I2
sV10_169_407
p1940
I2
sV10_169_406
p1941
I2
sV10_169_405
p1942
I2
sV10_169_404
p1943
I2
sV10_169_403
p1944
I2
sV10_169_402
p1945
I2
sV10_169_401
p1946
I2
sV10_169_400
p1947
I2
sV11_347_814
p1948
I5
sV10_169_399
p1949
I2
sV10_169_398
p1950
I2
sV10_169_397
p1951
I2
sV10_169_396
p1952
I2
sV10_169_395
p1953
I2
sV10_169_394
p1954
I2
sV10_169_393
p1955
I2
sV10_169_392
p1956
I2
sV10_169_391
p1957
I2
sV10_169_390
p1958
I2
sV11_347_811
p1959
I5
sV10_177_401
p1960
I3
sV11_362_813
p1961
I6
sV11_367_808
p1962
I6
sV11_367_809
p1963
I6
sV11_367_806
p1964
I6
sV11_367_807
p1965
I6
sV10_178_399
p1966
I3
sV10_170_383
p1967
I2
sV10_170_380
p1968
I2
sV10_170_381
p1969
I2
sV10_170_386
p1970
I2
sV10_170_387
p1971
I2
sV10_170_384
p1972
I2
sV10_170_385
p1973
I2
sV10_170_388
p1974
I2
sV10_170_389
p1975
I2
sV11_356_815
p1976
I6
sV11_356_814
p1977
I6
sV11_356_817
p1978
I6
sV11_356_816
p1979
I6
sV11_356_811
p1980
I6
sV11_356_810
p1981
I6
sV11_356_813
p1982
I6
sV11_356_812
p1983
I6
sV8_45_102
p1984
I1
sV8_45_103
p1985
I1
sV8_45_100
p1986
I1
sV8_45_101
p1987
I1
sV11_341_773
p1988
I5
sV11_333_788
p1989
I4
sV11_333_789
p1990
I4
sV11_333_786
p1991
I4
sV11_333_787
p1992
I4
sV11_333_784
p1993
I4
sV11_333_785
p1994
I4
sV11_333_782
p1995
I4
sV11_333_783
p1996
I4
sV11_333_780
p1997
I4
sV11_333_781
p1998
I4
sV10_161_389
p1999
I2
sV11_332_789
p2000
I4
sV11_332_788
p2001
I4
sV11_332_787
p2002
I4
sV11_332_786
p2003
I4
sV11_332_785
p2004
I4
sV11_332_784
p2005
I4
sV11_332_783
p2006
I4
sV11_332_782
p2007
I4
sV11_332_781
p2008
I4
sV11_332_780
p2009
I4
sV10_185_405
p2010
I3
sV10_185_404
p2011
I3
sV10_185_407
p2012
I3
sV10_185_406
p2013
I3
sV10_185_409
p2014
I3
sV10_185_408
p2015
I3
sV11_328_791
p2016
I4
sV11_328_790
p2017
I4
sV11_328_793
p2018
I4
sV11_328_792
p2019
I4
sV11_328_795
p2020
I4
sV11_328_794
p2021
I4
sV11_328_797
p2022
I4
sV11_328_796
p2023
I4
sV9_87_197
p2024
I1
sV9_87_198
p2025
I1
sV9_87_199
p2026
I1
sV9_87_200
p2027
I1
sV9_87_201
p2028
I1
sV9_87_202
p2029
I1
sV9_87_203
p2030
I1
sV9_87_204
p2031
I1
sV9_87_205
p2032
I1
sV11_338_792
p2033
I5
sV11_338_793
p2034
I5
sV11_338_790
p2035
I5
sV11_338_791
p2036
I5
sV11_338_796
p2037
I5
sV11_338_797
p2038
I5
sV11_338_794
p2039
I5
sV11_338_795
p2040
I5
sV11_353_814
p2041
I6
sV11_353_815
p2042
I6
sV11_338_798
p2043
I5
sV11_338_799
p2044
I5
sV11_353_810
p2045
I6
sV11_353_811
p2046
I6
sV11_353_812
p2047
I6
sV11_353_813
p2048
I6
sV11_359_805
p2049
I6
sV11_359_804
p2050
I6
sV11_359_801
p2051
I6
sV11_359_803
p2052
I6
sV11_359_802
p2053
I6
sV11_359_809
p2054
I6
sV11_359_808
p2055
I6
sV11_317_769
p2056
I3
sV10_176_407
p2057
I2
sV10_176_406
p2058
I2
sV10_176_405
p2059
I2
sV10_176_404
p2060
I2
sV10_176_403
p2061
I2
sV10_176_402
p2062
I2
sV10_176_401
p2063
I2
sV10_176_400
p2064
I2
sV11_341_769
p2065
I5
sV11_341_768
p2066
I5
sV10_176_409
p2067
I3
sV10_176_408
p2068
I2
sV7_20_50
p2069
I1
sV11_364_803
p2070
I6
sV11_364_809
p2071
I6
sV11_364_808
p2072
I6
sV10_174_410
p2073
I2
sV10_174_411
p2074
I2
sV11_355_801
p2075
I6
sV11_355_803
p2076
I6
sV11_355_802
p2077
I6
sV11_355_805
p2078
I6
sV11_355_804
p2079
I6
sV11_355_807
p2080
I6
sV11_355_806
p2081
I6
sV11_355_809
p2082
I6
sV11_355_808
p2083
I6
sV10_180_413
p2084
I3
sV10_180_412
p2085
I3
sV10_180_411
p2086
I3
sV10_180_410
p2087
I3
sV11_360_812
p2088
I6
sV11_360_813
p2089
I6
sV11_360_810
p2090
I6
sV11_360_811
p2091
I6
sV11_360_816
p2092
I6
sV11_360_817
p2093
I6
sV11_360_814
p2094
I6
sV11_360_815
p2095
I6
sV11_366_814
p2096
I6
sV11_366_815
p2097
I6
sV11_366_817
p2098
I6
sV10_166_400
p2099
I2
sV10_166_401
p2100
I2
sV10_166_402
p2101
I2
sV10_166_403
p2102
I2
sV11_366_819
p2103
I6
sV11_367_824
p2104
I6
sV11_336_769
p2105
I4
sV11_367_825
p2106
I6
sV11_336_765
p2107
I4
sV11_336_764
p2108
I4
sV11_336_767
p2109
I4
sV11_336_766
p2110
I4
sV11_367_826
p2111
I6
sV11_336_763
p2112
I4
sV11_336_762
p2113
I4
sV11_347_800
p2114
I5
sV11_347_801
p2115
I5
sV11_347_802
p2116
I5
sV11_347_803
p2117
I5
sV11_341_762
p2118
I5
sV11_347_805
p2119
I5
sV11_347_806
p2120
I5
sV11_347_807
p2121
I5
sV11_347_808
p2122
I5
sV11_347_809
p2123
I5
sV9_89_199
p2124
I1
sV11_366_805
p2125
I6
sV11_367_823
p2126
I6
sV11_347_798
p2127
I5
sV11_347_799
p2128
I5
sV11_347_790
p2129
I5
sV11_347_791
p2130
I5
sV11_347_792
p2131
I5
sV11_347_793
p2132
I5
sV11_347_795
p2133
I5
sV11_347_796
p2134
I5
sV11_347_797
p2135
I5
sV11_330_770
p2136
I4
sV11_330_771
p2137
I4
sV11_330_772
p2138
I4
sV11_330_773
p2139
I4
sV11_330_775
p2140
I4
sV11_330_776
p2141
I4
sV11_330_777
p2142
I4
sV11_330_778
p2143
I4
sV11_330_779
p2144
I4
sV11_353_807
p2145
I6
sV11_367_819
p2146
I6
sV11_367_818
p2147
I6
sV11_367_810
p2148
I6
sV11_367_813
p2149
I6
sV11_337_812
p2150
I5
sV11_337_813
p2151
I5
sV11_337_810
p2152
I5
sV11_337_811
p2153
I5
sV11_353_793
p2154
I6
sV11_330_798
p2155
I4
sV11_330_799
p2156
I4
sV11_353_795
p2157
I6
sV11_353_794
p2158
I6
sV11_330_792
p2159
I4
sV11_330_793
p2160
I4
sV11_330_790
p2161
I4
sV11_330_791
p2162
I4
sV11_330_796
p2163
I4
sV11_330_797
p2164
I4
sV11_330_794
p2165
I4
sV11_330_795
p2166
I4
sV10_170_391
p2167
I2
sV10_170_390
p2168
I2
sV10_170_393
p2169
I2
sV10_170_392
p2170
I2
sV10_170_395
p2171
I2
sV10_170_394
p2172
I2
sV10_170_397
p2173
I2
sV10_170_396
p2174
I2
sV10_170_399
p2175
I2
sV10_170_398
p2176
I2
sV11_356_822
p2177
I6
sV11_356_823
p2178
I6
sV11_356_824
p2179
I6
sV11_356_825
p2180
I6
sV11_356_826
p2181
I6
sV11_356_827
p2182
I6
sV11_368_820
p2183
I6
sV10_166_398
p2184
I2
sV10_166_399
p2185
I2
sV10_166_394
p2186
I2
sV10_166_395
p2187
I2
sV10_166_396
p2188
I2
sV10_166_397
p2189
I2
sV10_166_390
p2190
I2
sV10_166_391
p2191
I2
sV10_166_392
p2192
I2
sV10_166_393
p2193
I2
sV11_355_812
p2194
I6
sV11_355_813
p2195
I6
sV11_355_810
p2196
I6
sV11_355_811
p2197
I6
sV11_333_799
p2198
I4
sV11_333_798
p2199
I4
sV11_333_795
p2200
I4
sV11_333_794
p2201
I4
sV11_333_797
p2202
I4
sV11_333_796
p2203
I4
sV11_333_791
p2204
I4
sV11_333_790
p2205
I4
sV11_333_793
p2206
I4
sV11_333_792
p2207
I4
sV11_355_814
p2208
I6
sV11_355_815
p2209
I6
sV11_319_780
p2210
I3
sV11_319_781
p2211
I3
sV11_332_772
p2212
I4
sV11_332_773
p2213
I4
sV11_332_770
p2214
I4
sV11_332_771
p2215
I4
sV11_332_776
p2216
I4
sV11_332_777
p2217
I4
sV11_332_774
p2218
I4
sV11_332_775
p2219
I4
sV11_332_778
p2220
I4
sV11_332_779
p2221
I4
sV11_341_802
p2222
I5
sV11_341_803
p2223
I5
sV11_341_800
p2224
I5
sV11_341_801
p2225
I5
sV11_341_807
p2226
I5
sV11_341_804
p2227
I5
sV11_341_805
p2228
I5
sV11_341_808
p2229
I5
sV11_341_809
p2230
I5
sV11_362_805
p2231
I6
sV11_353_803
p2232
I6
sV11_338_780
p2233
I5
sV11_353_801
p2234
I6
sV11_353_800
p2235
I6
sV8_41_95
p2236
I1
sV11_338_784
p2237
I5
sV8_41_97
p2238
I1
sV8_41_96
p2239
I1
sV8_41_99
p2240
I1
sV8_41_98
p2241
I1
sV11_353_809
p2242
I6
sV11_353_808
p2243
I6
sV11_371_821
p2244
I7
sV11_371_820
p2245
I7
sV11_371_823
p2246
I7
sV9_84_204
p2247
I1
sV9_84_203
p2248
I1
sV9_84_202
p2249
I1
sV9_84_201
p2250
I1
sV9_84_200
p2251
I1
sV10_161_380
p2252
I1
sV10_161_381
p2253
I1
sV10_161_382
p2254
I1
sV9_84_194
p2255
I1
sV10_161_384
p2256
I1
sV10_161_385
p2257
I1
sV9_84_191
p2258
I1
sV10_161_387
p2259
I1
sV10_161_388
p2260
I2
sV11_331_803
p2261
I4
sV9_84_199
p2262
I1
sV9_84_198
p2263
I1
sV11_331_801
p2264
I4
sV11_331_800
p2265
I4
sV11_357_828
p2266
I6
sV11_363_808
p2267
I6
sV7_20_47
p2268
I1
sV7_20_48
p2269
I1
sV7_20_49
p2270
I1
sV11_363_804
p2271
I6
sV11_363_805
p2272
I6
sV11_363_803
p2273
I6
sV11_370_817
p2274
I6
sV10_174_409
p2275
I2
sV10_174_408
p2276
I2
sV10_174_401
p2277
I2
sV10_174_400
p2278
I2
sV10_174_403
p2279
I2
sV10_174_402
p2280
I2
sV10_174_405
p2281
I2
sV10_174_404
p2282
I2
sV10_174_407
p2283
I2
sV10_174_406
p2284
I2
sV11_362_822
p2285
I6
sV11_360_809
p2286
I6
sV11_360_808
p2287
I6
sV11_360_801
p2288
I6
sV11_360_800
p2289
I6
sV11_360_802
p2290
I6
sV11_360_805
p2291
I6
sV10_180_399
p2292
I3
sV11_366_825
p2293
I6
sV11_350_797
p2294
I6
sV11_366_824
p2295
I6
sV10_177_406
p2296
I3
sV10_177_407
p2297
I3
sV10_177_404
p2298
I3
sV10_177_405
p2299
I3
sV10_177_402
p2300
I3
sV10_177_403
p2301
I3
sV10_177_400
p2302
I3
sV10_187_408
p2303
I3
sV10_187_407
p2304
I3
sV10_177_408
p2305
I3
sV10_177_409
p2306
I3
sV11_349_821
p2307
I6
sV11_347_789
p2308
I5
sV11_347_788
p2309
I5
sV11_330_767
p2310
I4
sV11_330_766
p2311
I4
sV11_330_763
p2312
I4
sV11_330_762
p2313
I4
sV11_330_761
p2314
I4
sV11_330_760
p2315
I4
sV11_330_769
p2316
I4
sV11_330_768
p2317
I4
sV11_366_809
p2318
I6
sV11_337_809
p2319
I5
sV11_337_808
p2320
I5
sV11_337_805
p2321
I5
sV11_337_804
p2322
I5
sV11_337_807
p2323
I5
sV11_337_806
p2324
I5
sV11_337_801
p2325
I5
sV11_337_800
p2326
I5
sV11_337_803
p2327
I5
sV11_337_802
p2328
I5
sV11_330_789
p2329
I4
sV11_330_788
p2330
I4
sV11_330_781
p2331
I4
sV11_330_780
p2332
I4
sV11_330_783
p2333
I4
sV11_330_782
p2334
I4
sV11_330_785
p2335
I4
sV11_330_784
p2336
I4
sV11_330_787
p2337
I4
sV11_330_786
p2338
I4
sV11_353_818
p2339
I6
sV10_166_383
p2340
I2
sV10_166_382
p2341
I2
sV10_166_381
p2342
I2
sV10_166_380
p2343
I2
sV10_166_387
p2344
I2
sV10_166_386
p2345
I2
sV10_166_385
p2346
I2
sV10_166_384
p2347
I2
sV10_166_389
p2348
I2
sV10_166_388
p2349
I2
sV11_368_809
p2350
I6
sV11_368_808
p2351
I6
sV11_353_819
p2352
I6
sV11_353_805
p2353
I6
sV11_371_822
p2354
I7
sV11_335_786
p2355
I4
sV11_336_808
p2356
I4
sV11_336_809
p2357
I4
sV11_336_804
p2358
I4
sV11_336_805
p2359
I4
sV11_336_806
p2360
I4
sV11_336_807
p2361
I4
sV11_336_801
p2362
I4
sV11_336_802
p2363
I4
sV11_336_803
p2364
I4
s.