(dp1
S'9_147_186'
p2
S'USA_3.zip'
p3
sS'9_147_185'
p4
g3
sS'7_24_52'
p5
S'USA_1.zip'
p6
sS'9_109_211'
p7
S'USA_2.zip'
p8
sS'9_109_212'
p9
g8
sS'8_45_99'
p10
g6
sS'8_45_95'
p11
g6
sS'8_45_91'
p12
g6
sS'7_19_44'
p13
g6
sS'7_19_45'
p14
g6
sS'7_19_46'
p15
g6
sS'7_19_47'
p16
g6
sS'7_19_48'
p17
g6
sS'9_100_209'
p18
g8
sS'9_100_208'
p19
g8
sS'9_100_203'
p20
g8
sS'9_100_202'
p21
g8
sS'9_100_201'
p22
g8
sS'9_100_200'
p23
g8
sS'9_100_207'
p24
g8
sS'9_100_206'
p25
g8
sS'9_100_205'
p26
g8
sS'9_100_204'
p27
g8
sS'8_62_88'
p28
g6
sS'9_143_186'
p29
g3
sS'8_43_87'
p30
g6
sS'6_14_21'
p31
g6
sS'6_14_22'
p32
g6
sS'6_14_23'
p33
g6
sS'9_103_208'
p34
g8
sS'6_14_25'
p35
g6
sS'6_14_26'
p36
g6
sS'6_14_27'
p37
g6
sS'9_143_200'
p38
g3
sS'9_143_203'
p39
g3
sS'9_143_204'
p40
g3
sS'9_143_205'
p41
g3
sS'9_143_206'
p42
g3
sS'9_146_186'
p43
g3
sS'9_111_175'
p44
g8
sS'8_67_104'
p45
g6
sS'8_67_105'
p46
g6
sS'8_67_102'
p47
g6
sS'8_67_103'
p48
g6
sS'8_67_100'
p49
g6
sS'8_67_101'
p50
g6
sS'9_156_189'
p51
g3
sS'9_156_187'
p52
g3
sS'9_156_186'
p53
g3
sS'9_156_181'
p54
g3
sS'9_156_180'
p55
g3
sS'9_156_182'
p56
g3
sS'8_68_90'
p57
g6
sS'8_68_91'
p58
g6
sS'9_145_200'
p59
g3
sS'8_68_94'
p60
g6
sS'8_68_95'
p61
g6
sS'9_145_204'
p62
g3
sS'8_68_97'
p63
g6
sS'8_68_98'
p64
g6
sS'8_68_99'
p65
g6
sS'9_130_177'
p66
g8
sS'8_48_104'
p67
g6
sS'9_157_186'
p68
g3
sS'8_70_110'
p69
g6
sS'9_140_195'
p70
g8
sS'9_140_194'
p71
g8
sS'9_110_200'
p72
g8
sS'9_140_198'
p73
g8
sS'6_11_26'
p74
g6
sS'6_11_25'
p75
g6
sS'6_11_24'
p76
g6
sS'6_11_23'
p77
g6
sS'6_11_22'
p78
g6
sS'6_11_21'
p79
g6
sS'9_114_199'
p80
g8
sS'9_114_193'
p81
g8
sS'9_111_199'
p82
g8
sS'8_51_104'
p83
g6
sS'9_111_193'
p84
g8
sS'9_102_191'
p85
g8
sS'6_10_24'
p86
g6
sS'6_10_25'
p87
g6
sS'9_121_200'
p88
g8
sS'9_121_201'
p89
g8
sS'6_10_22'
p90
g6
sS'6_10_23'
p91
g6
sS'9_86_182'
p92
g8
sS'8_49_87'
p93
g6
sS'7_29_47'
p94
g6
sS'7_29_46'
p95
g6
sS'7_29_45'
p96
g6
sS'7_29_44'
p97
g6
sS'7_29_49'
p98
g6
sS'7_29_48'
p99
g6
sS'9_94_183'
p100
g8
sS'9_94_182'
p101
g8
sS'9_133_209'
p102
g8
sS'9_94_184'
p103
g8
sS'9_133_202'
p104
g8
sS'9_98_175'
p105
g8
sS'9_132_178'
p106
g8
sS'8_64_94'
p107
g6
sS'8_64_90'
p108
g6
sS'8_64_91'
p109
g6
sS'9_126_206'
p110
g8
sS'8_64_98'
p111
g6
sS'8_64_99'
p112
g6
sS'9_113_182'
p113
g8
sS'8_60_98'
p114
g6
sS'8_60_99'
p115
g6
sS'8_60_93'
p116
g6
sS'8_60_96'
p117
g6
sS'8_60_97'
p118
g6
sS'9_133_199'
p119
g8
sS'9_133_197'
p120
g8
sS'9_133_196'
p121
g8
sS'9_133_190'
p122
g8
sS'9_136_211'
p123
g8
sS'9_136_210'
p124
g8
sS'9_147_190'
p125
g3
sS'9_147_194'
p126
g3
sS'9_107_212'
p127
g8
sS'9_107_211'
p128
g8
sS'9_107_210'
p129
g8
sS'9_126_209'
p130
g8
sS'9_126_208'
p131
g8
sS'9_109_202'
p132
g8
sS'9_109_203'
p133
g8
sS'8_45_88'
p134
g6
sS'8_45_89'
p135
g6
sS'9_109_206'
p136
g8
sS'9_109_207'
p137
g8
sS'9_109_204'
p138
g8
sS'9_109_205'
p139
g8
sS'8_45_87'
p140
g6
sS'8_41_87'
p141
g6
sS'9_148_199'
p142
g3
sS'9_148_198'
p143
g3
sS'7_22_46'
p144
g6
sS'9_148_190'
p145
g3
sS'9_148_197'
p146
g3
sS'9_148_196'
p147
g3
sS'9_148_195'
p148
g3
sS'9_148_194'
p149
g3
sS'8_62_96'
p150
g6
sS'8_62_97'
p151
g6
sS'8_62_92'
p152
g6
sS'8_62_93'
p153
g6
sS'8_62_90'
p154
g6
sS'8_62_91'
p155
g6
sS'9_139_220'
p156
g8
sS'7_30_48'
p157
g6
sS'8_46_89'
p158
g6
sS'8_46_87'
p159
g6
sS'9_129_177'
p160
g8
sS'7_30_44'
p161
g6
sS'9_156_190'
p162
g3
sS'9_156_191'
p163
g3
sS'9_130_182'
p164
g8
sS'9_130_189'
p165
g8
sS'9_128_197'
p166
g8
sS'9_128_199'
p167
g8
sS'9_128_198'
p168
g8
sS'9_157_179'
p169
g3
sS'8_80_92'
p170
g6
sS'8_80_91'
p171
g6
sS'6_9_23'
p172
g6
sS'6_9_22'
p173
g6
sS'6_9_24'
p174
g6
sS'9_155_191'
p175
g3
sS'9_155_190'
p176
g3
sS'9_140_189'
p177
g8
sS'8_71_109'
p178
g6
sS'8_71_108'
p179
g6
sS'8_71_107'
p180
g6
sS'8_71_103'
p181
g6
sS'8_71_102'
p182
g6
sS'8_71_101'
p183
g6
sS'8_71_100'
p184
g6
sS'7_27_45'
p185
g6
sS'9_111_188'
p186
g8
sS'7_27_44'
p187
g6
sS'9_111_182'
p188
g8
sS'7_27_47'
p189
g6
sS'9_102_184'
p190
g8
sS'7_27_46'
p191
g6
sS'7_29_51'
p192
g6
sS'9_86_197'
p193
g8
sS'7_29_53'
p194
g6
sS'7_29_54'
p195
g6
sS'7_27_43'
p196
g6
sS'8_62_103'
p197
g6
sS'8_62_100'
p198
g6
sS'8_62_106'
p199
g6
sS'8_62_105'
p200
g6
sS'8_62_104'
p201
g6
sS'9_80_175'
p202
g8
sS'9_80_177'
p203
g8
sS'9_80_176'
p204
g8
sS'7_27_48'
p205
g6
sS'9_85_204'
p206
g8
sS'9_85_205'
p207
g8
sS'8_66_89'
p208
g6
sS'9_85_203'
p209
g8
sS'6_14_24'
p210
g6
sS'9_133_210'
p211
g8
sS'9_133_211'
p212
g8
sS'7_25_47'
p213
g6
sS'7_25_46'
p214
g6
sS'7_25_43'
p215
g6
sS'7_25_49'
p216
g6
sS'7_25_48'
p217
g6
sS'9_113_175'
p218
g8
sS'9_119_175'
p219
g8
sS'9_78_178'
p220
g6
sS'9_136_195'
p221
g8
sS'8_50_99'
p222
g6
sS'9_86_175'
p223
g8
sS'9_136_200'
p224
g8
sS'9_136_201'
p225
g8
sS'7_33_51'
p226
g6
sS'7_33_50'
p227
g6
sS'9_133_183'
p228
g8
sS'6_19_24'
p229
g6
sS'6_19_23'
p230
g6
sS'6_19_22'
p231
g6
sS'8_40_88'
p232
g6
sS'8_40_87'
p233
g6
sS'7_35_55'
p234
g6
sS'7_35_54'
p235
g6
sS'7_35_51'
p236
g6
sS'7_35_50'
p237
g6
sS'7_35_53'
p238
g6
sS'7_35_52'
p239
g6
sS'9_81_198'
p240
g8
sS'9_81_199'
p241
g8
sS'9_81_197'
p242
g8
sS'9_123_176'
p243
g8
sS'9_81_190'
p244
g8
sS'9_97_184'
p245
g8
sS'9_97_185'
p246
g8
sS'9_148_184'
p247
g3
sS'9_148_185'
p248
g3
sS'9_107_207'
p249
g8
sS'9_122_192'
p250
g8
sS'8_46_98'
p251
g6
sS'8_46_99'
p252
g6
sS'8_42_102'
p253
g6
sS'8_46_95'
p254
g6
sS'8_46_96'
p255
g6
sS'8_46_97'
p256
g6
sS'9_82_201'
p257
g8
sS'8_46_91'
p258
g6
sS'9_129_213'
p259
g8
sS'9_129_212'
p260
g8
sS'9_129_211'
p261
g8
sS'9_129_210'
p262
g8
sS'8_42_87'
p263
g6
sS'7_38_48'
p264
g6
sS'9_88_182'
p265
g8
sS'9_130_196'
p266
g8
sS'9_130_197'
p267
g8
sS'9_130_198'
p268
g8
sS'9_130_199'
p269
g8
sS'9_128_181'
p270
g8
sS'9_128_189'
p271
g8
sS'9_79_179'
p272
g8
sS'9_79_178'
p273
g8
sS'9_79_177'
p274
g6
sS'9_145_203'
p275
g3
sS'9_121_176'
p276
g8
sS'9_121_175'
p277
g8
sS'9_155_188'
p278
g3
sS'9_155_189'
p279
g3
sS'9_155_182'
p280
g3
sS'9_155_183'
p281
g3
sS'9_155_186'
p282
g3
sS'9_155_187'
p283
g3
sS'9_155_185'
p284
g3
sS'9_106_209'
p285
g8
sS'9_106_207'
p286
g8
sS'9_150_192'
p287
g3
sS'9_150_193'
p288
g3
sS'9_80_181'
p289
g8
sS'9_91_190'
p290
g8
sS'8_66_98'
p291
g6
sS'8_66_99'
p292
g6
sS'8_66_92'
p293
g6
sS'8_66_93'
p294
g6
sS'8_66_91'
p295
g6
sS'8_66_94'
p296
g6
sS'8_66_95'
p297
g6
sS'7_25_50'
p298
g6
sS'7_25_51'
p299
g6
sS'7_25_52'
p300
g6
sS'8_44_87'
p301
g6
sS'8_44_89'
p302
g6
sS'8_44_88'
p303
g6
sS'7_32_49'
p304
g6
sS'7_32_48'
p305
g6
sS'7_32_47'
p306
g6
sS'7_32_46'
p307
g6
sS'7_32_45'
p308
g6
sS'7_32_44'
p309
g6
sS'7_33_44'
p310
g6
sS'7_33_45'
p311
g6
sS'7_33_46'
p312
g6
sS'7_33_47'
p313
g6
sS'7_33_48'
p314
g6
sS'7_33_49'
p315
g6
sS'8_40_97'
p316
g6
sS'8_40_95'
p317
g6
sS'8_40_90'
p318
g6
sS'8_40_91'
p319
g6
sS'8_40_98'
p320
g6
sS'8_40_99'
p321
g6
sS'3_1_3'
p322
g6
sS'9_112_188'
p323
g8
sS'9_112_182'
p324
g8
sS'7_35_48'
p325
g6
sS'7_35_49'
p326
g6
sS'7_35_46'
p327
g6
sS'7_35_47'
p328
g6
sS'9_81_181'
p329
g8
sS'9_123_183'
p330
g8
sS'9_81_182'
p331
g8
sS'9_123_187'
p332
g8
sS'9_93_199'
p333
g8
sS'9_88_175'
p334
g8
sS'9_93_198'
p335
g8
sS'8_53_106'
p336
g6
sS'8_53_105'
p337
g6
sS'8_53_104'
p338
g6
sS'9_97_209'
p339
g8
sS'9_97_208'
p340
g8
sS'9_108_207'
p341
g8
sS'9_97_190'
p342
g8
sS'9_97_199'
p343
g8
sS'9_140_218'
p344
g8
sS'9_108_176'
p345
g8
sS'8_43_101'
p346
g6
sS'8_43_102'
p347
g6
sS'8_43_103'
p348
g6
sS'7_34_45'
p349
g6
sS'7_34_47'
p350
g6
sS'7_34_46'
p351
g6
sS'7_34_49'
p352
g6
sS'7_34_48'
p353
g6
sS'9_122_187'
p354
g8
sS'9_130_211'
p355
g8
sS'9_130_210'
p356
g8
sS'9_129_200'
p357
g8
sS'8_42_95'
p358
g6
sS'9_129_202'
p359
g8
sS'8_42_97'
p360
g6
sS'8_42_98'
p361
g6
sS'9_149_194'
p362
g3
sS'7_22_45'
p363
g6
sS'9_149_192'
p364
g3
sS'7_22_43'
p365
g6
sS'6_15_23'
p366
g6
sS'6_15_22'
p367
g6
sS'6_15_21'
p368
g6
sS'6_15_26'
p369
g6
sS'6_15_25'
p370
g6
sS'6_15_24'
p371
g6
sS'9_128_212'
p372
g8
sS'9_149_191'
p373
g3
sS'9_141_219'
p374
g3
sS'9_141_218'
p375
g8
sS'9_88_205'
p376
g8
sS'9_128_213'
p377
g8
sS'9_88_198'
p378
g8
sS'9_128_210'
p379
g8
sS'9_88_190'
p380
g8
sS'9_141_189'
p381
g8
sS'9_139_209'
p382
g8
sS'9_139_202'
p383
g8
sS'9_139_200'
p384
g8
sS'9_139_206'
p385
g8
sS'9_96_208'
p386
g8
sS'9_139_204'
p387
g8
sS'9_103_184'
p388
g8
sS'9_106_210'
p389
g8
sS'8_66_105'
p390
g6
sS'9_98_184'
p391
g8
sS'9_80_190'
p392
g8
sS'5_5_11'
p393
g6
sS'5_5_10'
p394
g6
sS'5_5_13'
p395
g6
sS'5_5_12'
p396
g6
sS'9_80_198'
p397
g8
sS'9_92_190'
p398
g8
sS'9_104_199'
p399
g8
sS'9_104_191'
p400
g8
sS'9_149_196'
p401
g3
sS'8_55_100'
p402
g6
sS'8_55_105'
p403
g6
sS'8_55_106'
p404
g6
sS'9_149_197'
p405
g3
sS'8_44_92'
p406
g6
sS'8_44_93'
p407
g6
sS'8_44_90'
p408
g6
sS'8_44_91'
p409
g6
sS'8_44_94'
p410
g6
sS'8_44_95'
p411
g6
sS'9_119_199'
p412
g8
sS'9_132_186'
p413
g8
sS'9_132_185'
p414
g8
sS'8_44_99'
p415
g6
sS'9_132_183'
p416
g8
sS'9_121_204'
p417
g8
sS'9_119_205'
p418
g8
sS'9_119_204'
p419
g8
sS'9_121_205'
p420
g8
sS'7_32_50'
p421
g6
sS'7_32_51'
p422
g6
sS'7_32_52'
p423
g6
sS'7_32_53'
p424
g6
sS'9_143_187'
p425
g3
sS'9_102_199'
p426
g8
sS'6_10_21'
p427
g6
sS'8_50_98'
p428
g6
sS'9_121_202'
p429
g8
sS'9_121_203'
p430
g8
sS'3_1_2'
p431
g6
sS'7_29_43'
p432
g6
sS'9_112_199'
p433
g8
sS'9_112_193'
p434
g8
sS'7_28_50'
p435
g6
sS'9_149_193'
p436
g3
sS'9_123_192'
p437
g8
sS'8_48_99'
p438
g6
sS'8_48_95'
p439
g6
sS'8_48_92'
p440
g6
sS'9_113_203'
p441
g8
sS'9_113_202'
p442
g8
sS'9_113_201'
p443
g8
sS'9_113_200'
p444
g8
sS'9_108_212'
p445
g8
sS'9_82_175'
p446
g8
sS'7_34_52'
p447
g6
sS'7_34_53'
p448
g6
sS'7_34_50'
p449
g6
sS'7_34_51'
p450
g6
sS'7_34_54'
p451
g6
sS'7_34_55'
p452
g6
sS'9_106_175'
p453
g8
sS'8_54_103'
p454
g6
sS'7_22_51'
p455
g6
sS'7_22_50'
p456
g6
sS'9_149_184'
p457
g3
sS'9_81_183'
p458
g8
sS'9_130_202'
p459
g8
sS'9_130_203'
p460
g8
sS'9_130_200'
p461
g8
sS'9_123_182'
p462
g8
sS'9_130_206'
p463
g8
sS'9_130_207'
p464
g8
sS'9_130_204'
p465
g8
sS'9_130_205'
p466
g8
sS'9_130_208'
p467
g8
sS'9_130_209'
p468
g8
sS'9_158_185'
p469
g3
sS'8_48_87'
p470
g6
sS'9_141_207'
p471
g8
sS'9_141_202'
p472
g8
sS'9_141_203'
p473
g8
sS'9_141_200'
p474
g8
sS'9_141_208'
p475
g8
sS'7_23_49'
p476
g6
sS'7_23_48'
p477
g6
sS'9_141_194'
p478
g8
sS'9_117_193'
p479
g8
sS'9_141_193'
p480
g8
sS'9_141_190'
p481
g8
sS'9_141_191'
p482
g8
sS'7_23_43'
p483
g6
sS'7_23_45'
p484
g6
sS'7_23_44'
p485
g6
sS'7_23_47'
p486
g6
sS'7_23_46'
p487
g6
sS'9_135_193'
p488
g8
sS'9_135_192'
p489
g8
sS'9_135_191'
p490
g8
sS'9_135_190'
p491
g8
sS'9_139_218'
p492
g8
sS'9_135_196'
p493
g8
sS'9_135_195'
p494
g8
sS'9_135_194'
p495
g8
sS'9_135_199'
p496
g8
sS'9_139_217'
p497
g8
sS'9_139_210'
p498
g8
sS'8_53_103'
p499
g6
sS'9_103_199'
p500
g8
sS'6_17_23'
p501
g6
sS'6_17_22'
p502
g6
sS'6_17_25'
p503
g6
sS'6_17_24'
p504
g6
sS'6_17_27'
p505
g6
sS'6_17_26'
p506
g6
sS'9_103_191'
p507
g8
sS'8_50_96'
p508
g6
sS'9_106_199'
p509
g8
sS'9_106_191'
p510
g8
sS'6_16_26'
p511
g6
sS'6_16_24'
p512
g6
sS'6_16_25'
p513
g6
sS'6_16_22'
p514
g6
sS'6_16_23'
p515
g6
sS'9_95_184'
p516
g8
sS'9_95_185'
p517
g8
sS'7_39_46'
p518
g6
sS'9_120_204'
p519
g8
sS'9_105_184'
p520
g8
sS'6_12_21'
p521
g6
sS'6_12_26'
p522
g6
sS'6_12_24'
p523
g6
sS'6_12_25'
p524
g6
sS'9_144_200'
p525
g3
sS'9_144_205'
p526
g3
sS'9_144_204'
p527
g3
sS'9_89_206'
p528
g8
sS'9_89_207'
p529
g8
sS'9_89_205'
p530
g8
sS'9_92_180'
p531
g8
sS'9_104_184'
p532
g8
sS'9_154_188'
p533
g3
sS'9_154_183'
p534
g3
sS'9_154_185'
p535
g3
sS'9_154_184'
p536
g3
sS'6_13_25'
p537
g6
sS'6_13_24'
p538
g6
sS'6_13_26'
p539
g6
sS'6_13_21'
p540
g6
sS'6_13_23'
p541
g6
sS'6_13_22'
p542
g6
sS'9_120_199'
p543
g8
sS'9_120_194'
p544
g8
sS'9_125_212'
p545
g8
sS'9_120_193'
p546
g8
sS'9_120_192'
p547
g8
sS'9_132_190'
p548
g8
sS'9_119_187'
p549
g8
sS'9_132_197'
p550
g8
sS'9_132_199'
p551
g8
sS'9_119_189'
p552
g8
sS'9_119_213'
p553
g8
sS'9_112_211'
p554
g8
sS'9_112_213'
p555
g8
sS'9_112_212'
p556
g8
sS'8_52_103'
p557
g6
sS'9_115_175'
p558
g8
sS'8_52_104'
p559
g6
sS'9_123_211'
p560
g8
sS'5_8_12'
p561
g6
sS'9_134_211'
p562
g8
sS'9_133_179'
p563
g8
sS'9_133_178'
p564
g8
sS'9_134_180'
p565
g8
sS'9_125_180'
p566
g8
sS'9_113_213'
p567
g8
sS'9_113_214'
p568
g8
sS'9_94_175'
p569
g8
sS'9_108_179'
p570
g8
sS'9_108_178'
p571
g8
sS'9_108_175'
p572
g8
sS'9_108_177'
p573
g8
sS'9_87_175'
p574
g8
sS'7_22_49'
p575
g6
sS'8_60_105'
p576
g6
sS'7_22_47'
p577
g6
sS'7_22_44'
p578
g6
sS'8_60_106'
p579
g6
sS'8_60_101'
p580
g6
sS'8_60_100'
p581
g6
sS'9_149_190'
p582
g3
sS'8_60_102'
p583
g6
sS'9_117_188'
p584
g8
sS'7_23_52'
p585
g6
sS'7_23_50'
p586
g6
sS'7_23_51'
p587
g6
sS'9_113_188'
p588
g8
sS'9_117_182'
p589
g8
sS'9_148_202'
p590
g3
sS'9_148_201'
p591
g3
sS'9_148_200'
p592
g3
sS'9_104_207'
p593
g8
sS'9_135_180'
p594
g8
sS'9_135_181'
p595
g8
sS'9_84_175'
p596
g8
sS'8_54_100'
p597
g6
sS'8_54_101'
p598
g6
sS'8_54_102'
p599
g6
sS'9_110_188'
p600
g8
sS'8_54_105'
p601
g6
sS'8_54_106'
p602
g6
sS'9_110_182'
p603
g8
sS'8_46_101'
p604
g6
sS'8_46_100'
p605
g6
sS'8_46_103'
p606
g6
sS'8_46_102'
p607
g6
sS'9_106_184'
p608
g8
sS'9_95_190'
p609
g8
sS'9_121_187'
p610
g8
sS'5_8_13'
p611
g6
sS'5_8_11'
p612
g6
sS'9_95_199'
p613
g8
sS'5_4_12'
p614
g6
sS'5_4_11'
p615
g6
sS'8_42_91'
p616
g6
sS'9_93_175'
p617
g8
sS'8_42_96'
p618
g6
sS'9_120_212'
p619
g8
sS'9_120_213'
p620
g8
sS'9_105_199'
p621
g8
sS'9_105_191'
p622
g8
sS'7_24_49'
p623
g6
sS'7_24_46'
p624
g6
sS'7_24_47'
p625
g6
sS'7_24_43'
p626
g6
sS'9_156_179'
p627
g3
sS'9_104_175'
p628
g8
sS'9_154_190'
p629
g3
sS'9_154_191'
p630
g3
sS'5_6_10'
p631
g6
sS'5_6_11'
p632
g6
sS'5_6_12'
p633
g6
sS'5_6_13'
p634
g6
sS'9_95_175'
p635
g8
sS'9_125_200'
p636
g8
sS'9_125_206'
p637
g8
sS'9_125_208'
p638
g8
sS'9_125_209'
p639
g8
sS'9_112_200'
p640
g8
sS'9_141_215'
p641
g8
sS'8_73_98'
p642
g6
sS'9_141_214'
p643
g8
sS'8_73_95'
p644
g6
sS'8_73_97'
p645
g6
sS'8_73_92'
p646
g6
sS'8_73_93'
p647
g6
sS'9_123_200'
p648
g8
sS'9_123_206'
p649
g8
sS'9_153_192'
p650
g3
sS'9_153_191'
p651
g3
sS'9_153_190'
p652
g3
sS'9_123_209'
p653
g8
sS'9_141_213'
p654
g8
sS'9_141_212'
p655
g8
sS'8_49_104'
p656
g6
sS'9_134_206'
p657
g8
sS'9_134_207'
p658
g8
sS'9_134_204'
p659
g8
sS'9_134_205'
p660
g8
sS'9_134_202'
p661
g8
sS'9_134_203'
p662
g8
sS'9_134_208'
p663
g8
sS'9_134_209'
p664
g8
sS'9_134_196'
p665
g8
sS'9_134_197'
p666
g8
sS'9_134_190'
p667
g8
sS'9_147_197'
p668
g3
sS'9_134_199'
p669
g8
sS'9_126_193'
p670
g8
sS'9_126_192'
p671
g8
sS'9_126_191'
p672
g8
sS'8_72_93'
p673
g6
sS'9_126_195'
p674
g8
sS'9_126_194'
p675
g8
sS'5_10_11'
p676
g6
sS'9_126_179'
p677
g8
sS'9_126_177'
p678
g8
sS'9_91_206'
p679
g8
sS'9_91_201'
p680
g8
sS'9_91_200'
p681
g8
sS'9_159_179'
p682
g3
sS'8_58_91'
p683
g6
sS'7_36_50'
p684
g6
sS'8_58_96'
p685
g6
sS'8_47_95'
p686
g6
sS'9_116_188'
p687
g8
sS'8_58_94'
p688
g6
sS'9_109_200'
p689
g8
sS'9_109_201'
p690
g8
sS'9_90_199'
p691
g8
sS'9_131_202'
p692
g8
sS'8_39_89'
p693
g6
sS'8_39_88'
p694
g6
sS'9_131_209'
p695
g8
sS'8_65_100'
p696
g6
sS'9_139_205'
p697
g8
sS'8_56_107'
p698
g6
sS'9_118_183'
p699
g8
sS'9_118_182'
p700
g8
sS'9_118_181'
p701
g8
sS'8_65_103'
p702
g6
sS'9_118_187'
p703
g8
sS'9_118_186'
p704
g8
sS'9_118_185'
p705
g8
sS'9_118_184'
p706
g8
sS'9_110_194'
p707
g8
sS'9_90_190'
p708
g8
sS'9_118_189'
p709
g8
sS'9_118_188'
p710
g8
sS'9_110_191'
p711
g8
sS'9_110_192'
p712
g8
sS'9_110_193'
p713
g8
sS'4_3_6'
p714
g6
sS'9_142_200'
p715
g3
sS'9_142_203'
p716
g3
sS'4_3_5'
p717
g6
sS'9_142_207'
p718
g3
sS'9_142_206'
p719
g3
sS'9_83_190'
p720
g8
sS'4_5_5'
p721
g6
sS'9_129_182'
p722
g8
sS'9_129_181'
p723
g8
sS'9_83_201'
p724
g8
sS'9_129_189'
p725
g8
sS'9_121_192'
p726
g8
sS'9_121_194'
p727
g8
sS'9_121_195'
p728
g8
sS'9_121_196'
p729
g8
sS'9_121_197'
p730
g8
sS'9_121_198'
p731
g8
sS'9_121_199'
p732
g8
sS'9_93_180'
p733
g8
sS'9_93_181'
p734
g8
sS'9_93_182'
p735
g8
sS'9_93_183'
p736
g8
sS'8_75_96'
p737
g6
sS'8_75_97'
p738
g6
sS'8_75_94'
p739
g6
sS'8_75_95'
p740
g6
sS'8_75_92'
p741
g6
sS'8_75_93'
p742
g6
sS'9_120_187'
p743
g8
sS'8_74_92'
p744
g6
sS'8_74_95'
p745
g6
sS'8_74_97'
p746
g6
sS'8_74_96'
p747
g6
sS'8_74_99'
p748
g6
sS'8_74_98'
p749
g6
sS'9_152_189'
p750
g3
sS'9_89_175'
p751
g8
sS'9_89_176'
p752
g8
sS'9_89_177'
p753
g8
sS'9_89_178'
p754
g8
sS'9_89_179'
p755
g8
sS'9_152_187'
p756
g3
sS'8_76_93'
p757
g6
sS'8_76_92'
p758
g6
sS'8_76_96'
p759
g6
sS'8_76_95'
p760
g6
sS'8_76_94'
p761
g6
sS'9_153_188'
p762
g3
sS'9_153_184'
p763
g3
sS'9_153_185'
p764
g3
sS'9_153_186'
p765
g3
sS'9_153_187'
p766
g3
sS'8_77_91'
p767
g6
sS'9_99_175'
p768
g8
sS'8_77_93'
p769
g6
sS'8_77_94'
p770
g6
sS'8_77_95'
p771
g6
sS'9_158_179'
p772
g3
sS'9_126_186'
p773
g8
sS'9_126_187'
p774
g8
sS'9_126_180'
p775
g8
sS'9_126_188'
p776
g8
sS'9_107_184'
p777
g8
sS'9_140_202'
p778
g8
sS'9_142_190'
p779
g3
sS'9_142_195'
p780
g3
sS'9_142_194'
p781
g3
sS'9_142_197'
p782
g3
sS'9_142_196'
p783
g3
sS'9_143_188'
p784
g3
sS'9_152_184'
p785
g3
sS'9_98_209'
p786
g8
sS'9_138_219'
p787
g8
sS'9_140_200'
p788
g8
sS'9_78_192'
p789
g6
sS'9_78_193'
p790
g6
sS'9_131_210'
p791
g8
sS'8_39_96'
p792
g6
sS'8_39_97'
p793
g6
sS'8_39_94'
p794
g6
sS'8_39_95'
p795
g6
sS'8_39_92'
p796
g6
sS'8_39_93'
p797
g6
sS'8_39_90'
p798
g6
sS'8_39_91'
p799
g6
sS'9_82_182'
p800
g8
sS'9_82_183'
p801
g8
sS'9_118_193'
p802
g8
sS'9_118_199'
p803
g8
sS'9_129_198'
p804
g8
sS'9_129_199'
p805
g8
sS'9_142_216'
p806
g3
sS'9_142_217'
p807
g3
sS'9_142_215'
p808
g3
sS'9_142_218'
p809
g3
sS'9_83_182'
p810
g8
sS'5_9_11'
p811
g6
sS'5_9_12'
p812
g6
sS'8_71_93'
p813
g6
sS'8_71_97'
p814
g6
sS'8_71_94'
p815
g6
sS'8_71_95'
p816
g6
sS'8_71_98'
p817
g6
sS'9_105_208'
p818
g8
sS'9_105_209'
p819
g8
sS'9_105_207'
p820
g8
sS'9_93_193'
p821
g8
sS'9_93_192'
p822
g8
sS'9_93_191'
p823
g8
sS'9_93_190'
p824
g8
sS'9_93_197'
p825
g8
sS'9_93_196'
p826
g8
sS'9_93_195'
p827
g8
sS'9_93_194'
p828
g8
sS'5_7_13'
p829
g6
sS'5_7_12'
p830
g6
sS'5_7_11'
p831
g6
sS'5_7_10'
p832
g6
sS'9_79_195'
p833
g8
sS'9_78_176'
p834
g6
sS'9_78_177'
p835
g6
sS'9_128_177'
p836
g8
sS'9_140_219'
p837
g8
sS'9_79_194'
p838
g8
sS'9_140_210'
p839
g8
sS'9_140_211'
p840
g8
sS'9_140_212'
p841
g8
sS'9_128_179'
p842
g8
sS'9_128_178'
p843
g8
sS'9_118_178'
p844
g8
sS'9_118_179'
p845
g8
sS'8_70_99'
p846
g6
sS'8_70_98'
p847
g6
sS'8_70_95'
p848
g6
sS'8_70_94'
p849
g6
sS'8_70_97'
p850
g6
sS'8_70_96'
p851
g6
sS'9_118_175'
p852
g8
sS'8_68_105'
p853
g6
sS'8_68_106'
p854
g6
sS'8_68_101'
p855
g6
sS'8_68_100'
p856
g6
sS'8_55_87'
p857
g6
sS'8_68_109'
p858
g6
sS'9_152_192'
p859
g3
sS'9_152_190'
p860
g3
sS'9_152_191'
p861
g3
sS'7_31_51'
p862
g6
sS'7_31_50'
p863
g6
sS'7_31_53'
p864
g6
sS'7_31_52'
p865
g6
sS'9_104_208'
p866
g8
sS'8_64_101'
p867
g6
sS'8_64_100'
p868
g6
sS'8_64_105'
p869
g6
sS'8_64_104'
p870
g6
sS'8_64_106'
p871
g6
sS'9_91_179'
p872
g8
sS'9_91_178'
p873
g8
sS'9_91_175'
p874
g8
sS'8_72_97'
p875
g6
sS'9_86_203'
p876
g8
sS'9_86_205'
p877
g8
sS'9_86_204'
p878
g8
sS'9_151_192'
p879
g3
sS'8_72_95'
p880
g6
sS'9_141_198'
p881
g8
sS'9_107_199'
p882
g8
sS'9_107_191'
p883
g8
sS'9_143_194'
p884
g3
sS'9_143_195'
p885
g3
sS'9_143_196'
p886
g3
sS'9_143_190'
p887
g3
sS'9_80_197'
p888
g8
sS'9_142_188'
p889
g3
sS'9_142_189'
p890
g3
sS'9_116_217'
p891
g8
sS'9_80_196'
p892
g8
sS'9_137_201'
p893
g8
sS'9_137_200'
p894
g8
sS'9_137_203'
p895
g8
sS'9_137_202'
p896
g8
sS'9_80_195'
p897
g8
sS'8_56_106'
p898
g6
sS'8_65_101'
p899
g6
sS'8_65_102'
p900
g6
sS'8_56_105'
p901
g6
sS'8_65_104'
p902
g6
sS'8_65_105'
p903
g6
sS'8_56_100'
p904
g6
sS'8_56_101'
p905
g6
sS'9_90_206'
p906
g8
sS'9_90_200'
p907
g8
sS'9_100_197'
p908
g8
sS'9_100_196'
p909
g8
sS'9_100_195'
p910
g8
sS'9_100_194'
p911
g8
sS'9_100_193'
p912
g8
sS'9_100_192'
p913
g8
sS'9_100_191'
p914
g8
sS'9_100_199'
p915
g8
sS'9_100_198'
p916
g8
sS'8_79_89'
p917
g6
sS'9_112_175'
p918
g8
sS'9_78_187'
p919
g6
sS'9_78_189'
p920
g6
sS'9_78_188'
p921
g6
sS'7_37_50'
p922
g6
sS'9_82_190'
p923
g8
sS'9_82_199'
p924
g8
sS'7_36_51'
p925
g6
sS'9_151_191'
p926
g3
sS'9_151_190'
p927
g3
sS'9_110_175'
p928
g8
sS'9_131_178'
p929
g8
sS'9_131_177'
p930
g8
sS'8_53_87'
p931
g6
sS'8_69_104'
p932
g6
sS'8_69_105'
p933
g6
sS'8_69_106'
p934
g6
sS'8_69_107'
p935
g6
sS'8_69_100'
p936
g6
sS'8_69_101'
p937
g6
sS'8_69_102'
p938
g6
sS'8_69_103'
p939
g6
sS'8_69_108'
p940
g6
sS'8_69_109'
p941
g6
sS'9_137_190'
p942
g8
sS'9_136_181'
p943
g8
sS'9_137_196'
p944
g8
sS'9_137_199'
p945
g8
sS'8_41_100'
p946
g6
sS'8_41_101'
p947
g6
sS'8_55_98'
p948
g6
sS'8_55_99'
p949
g6
sS'8_55_94'
p950
g6
sS'8_55_95'
p951
g6
sS'8_55_96'
p952
g6
sS'8_55_97'
p953
g6
sS'8_55_91'
p954
g6
sS'9_114_175'
p955
g8
sS'8_51_87'
p956
g6
sS'9_116_175'
p957
g8
sS'9_127_212'
p958
g8
sS'9_120_175'
p959
g8
sS'9_120_174'
p960
g8
sS'9_127_181'
p961
g8
sS'9_127_180'
p962
g8
sS'7_31_48'
p963
g6
sS'7_31_49'
p964
g6
sS'7_31_46'
p965
g6
sS'7_31_47'
p966
g6
sS'7_31_44'
p967
g6
sS'7_31_45'
p968
g6
sS'9_127_189'
p969
g8
sS'9_127_188'
p970
g8
sS'8_54_95'
p971
g6
sS'8_54_94'
p972
g6
sS'8_54_93'
p973
g6
sS'8_54_92'
p974
g6
sS'8_54_91'
p975
g6
sS'8_54_90'
p976
g6
sS'8_54_99'
p977
g6
sS'8_61_104'
p978
g6
sS'8_61_105'
p979
g6
sS'8_61_100'
p980
g6
sS'8_61_102'
p981
g6
sS'8_61_103'
p982
g6
sS'9_98_190'
p983
g8
sS'9_98_191'
p984
g8
sS'9_98_199'
p985
g8
sS'9_119_191'
p986
g8
sS'9_119_190'
p987
g8
sS'9_119_193'
p988
g8
sS'9_119_192'
p989
g8
sS'9_116_204'
p990
g8
sS'9_137_212'
p991
g8
sS'9_137_210'
p992
g8
sS'9_116_199'
p993
g8
sS'9_140_206'
p994
g8
sS'9_132_189'
p995
g8
sS'9_116_193'
p996
g8
sS'9_132_188'
p997
g8
sS'9_90_183'
p998
g8
sS'9_90_182'
p999
g8
sS'9_132_187'
p1000
g8
sS'8_78_95'
p1001
g6
sS'8_78_94'
p1002
g6
sS'9_132_184'
p1003
g8
sS'8_78_91'
p1004
g6
sS'8_78_90'
p1005
g6
sS'8_78_93'
p1006
g6
sS'9_100_184'
p1007
g8
sS'8_79_92'
p1008
g6
sS'8_79_93'
p1009
g6
sS'8_79_90'
p1010
g6
sS'8_79_91'
p1011
g6
sS'9_97_175'
p1012
g8
sS'9_147_202'
p1013
g3
sS'9_147_203'
p1014
g3
sS'8_47_103'
p1015
g6
sS'8_47_104'
p1016
g6
sS'8_73_101'
p1017
g6
sS'8_73_100'
p1018
g6
sS'8_59_89'
p1019
g6
sS'7_37_48'
p1020
g6
sS'7_37_49'
p1021
g6
sS'7_37_46'
p1022
g6
sS'7_37_47'
p1023
g6
sS'8_59_87'
p1024
g6
sS'9_151_186'
p1025
g3
sS'9_151_187'
p1026
g3
sS'8_57_87'
p1027
g6
sS'9_151_185'
p1028
g3
sS'3_2_2'
p1029
g6
sS'3_2_3'
p1030
g6
sS'9_151_188'
p1031
g3
sS'9_151_189'
p1032
g3
sS'7_21_49'
p1033
g6
sS'7_21_48'
p1034
g6
sS'7_21_43'
p1035
g6
sS'7_21_47'
p1036
g6
sS'7_21_45'
p1037
g6
sS'9_93_203'
p1038
g8
sS'9_93_202'
p1039
g8
sS'9_93_201'
p1040
g8
sS'9_93_200'
p1041
g8
sS'9_93_207'
p1042
g8
sS'9_93_206'
p1043
g8
sS'9_93_205'
p1044
g8
sS'9_93_204'
p1045
g8
sS'7_36_47'
p1046
g6
sS'7_36_46'
p1047
g6
sS'9_108_199'
p1048
g8
sS'9_108_191'
p1049
g8
sS'9_108_190'
p1050
g8
sS'8_53_95'
p1051
g6
sS'8_53_92'
p1052
g6
sS'8_53_99'
p1053
g6
sS'9_114_216'
p1054
g8
sS'9_114_215'
p1055
g8
sS'9_114_214'
p1056
g8
sS'8_52_92'
p1057
g6
sS'8_52_95'
p1058
g6
sS'8_69_110'
p1059
g6
sS'8_52_99'
p1060
g6
sS'9_79_184'
p1061
g8
sS'9_79_185'
p1062
g8
sS'9_79_186'
p1063
g8
sS'9_79_187'
p1064
g8
sS'9_79_180'
p1065
g8
sS'9_79_181'
p1066
g8
sS'9_79_182'
p1067
g8
sS'9_79_183'
p1068
g8
sS'7_27_49'
p1069
g6
sS'9_79_189'
p1070
g8
sS'9_99_209'
p1071
g8
sS'9_137_182'
p1072
g8
sS'9_137_183'
p1073
g8
sS'9_136_196'
p1074
g8
sS'9_137_181'
p1075
g8
sS'9_136_190'
p1076
g8
sS'8_50_92'
p1077
g6
sS'9_137_189'
p1078
g8
sS'8_50_97'
p1079
g6
sS'9_136_199'
p1080
g8
sS'8_50_95'
p1081
g6
sS'9_85_192'
p1082
g8
sS'9_85_193'
p1083
g8
sS'9_85_190'
p1084
g8
sS'9_85_191'
p1085
g8
sS'9_85_196'
p1086
g8
sS'9_85_194'
p1087
g8
sS'9_85_195'
p1088
g8
sS'9_101_184'
p1089
g8
sS'8_51_92'
p1090
g6
sS'7_38_45'
p1091
g6
sS'8_51_95'
p1092
g6
sS'7_38_47'
p1093
g6
sS'7_38_46'
p1094
g6
sS'8_51_99'
p1095
g6
sS'9_85_175'
p1096
g8
sS'9_127_202'
p1097
g8
sS'9_127_203'
p1098
g8
sS'9_127_200'
p1099
g8
sS'9_127_201'
p1100
g8
sS'9_127_209'
p1101
g8
sS'9_127_196'
p1102
g8
sS'9_127_197'
p1103
g8
sS'9_127_195'
p1104
g8
sS'9_127_190'
p1105
g8
sS'9_127_191'
p1106
g8
sS'8_54_87'
p1107
g6
sS'9_105_175'
p1108
g8
sS'8_54_88'
p1109
g6
sS'8_54_89'
p1110
g6
sS'9_127_179'
p1111
g8
sS'7_36_48'
p1112
g6
sS'9_86_190'
p1113
g8
sS'9_98_187'
p1114
g8
sS'9_98_186'
p1115
g8
sS'9_98_185'
p1116
g8
sS'8_66_104'
p1117
g6
sS'8_66_101'
p1118
g6
sS'9_98_189'
p1119
g8
sS'9_98_188'
p1120
g8
sS'9_107_175'
p1121
g8
sS'9_146_195'
p1122
g3
sS'9_146_194'
p1123
g3
sS'7_28_53'
p1124
g6
sS'7_28_52'
p1125
g6
sS'7_28_51'
p1126
g6
sS'9_127_177'
p1127
g8
sS'7_28_54'
p1128
g6
sS'9_136_182'
p1129
g8
sS'9_140_207'
p1130
g8
sS'8_57_108'
p1131
g6
sS'8_57_107'
p1132
g6
sS'8_78_89'
p1133
g6
sS'8_57_102'
p1134
g6
sS'8_57_101'
p1135
g6
sS'9_118_180'
p1136
g8
sS'9_110_198'
p1137
g8
sS'9_110_199'
p1138
g8
sS'9_122_200'
p1139
g8
sS'9_122_207'
p1140
g8
sS'9_122_206'
p1141
g8
sS'9_122_205'
p1142
g8
sS'9_122_209'
p1143
g8
sS'9_122_208'
p1144
g8
sS'9_110_195'
p1145
g8
sS'9_110_196'
p1146
g8
sS'9_135_207'
p1147
g8
sS'9_135_206'
p1148
g8
sS'9_110_197'
p1149
g8
sS'9_135_202'
p1150
g8
sS'9_135_200'
p1151
g8
sS'9_135_209'
p1152
g8
sS'9_135_208'
p1153
g8
sS'9_140_209'
p1154
g8
sS'9_140_208'
p1155
g8
sS'8_59_99'
p1156
g6
sS'8_59_90'
p1157
g6
sS'8_59_91'
p1158
g6
sS'8_59_92'
p1159
g6
sS'8_59_93'
p1160
g6
sS'8_59_94'
p1161
g6
sS'8_59_95'
p1162
g6
sS'8_59_96'
p1163
g6
sS'9_149_195'
p1164
g3
sS'8_57_91'
p1165
g6
sS'8_57_96'
p1166
g6
sS'8_57_94'
p1167
g6
sS'8_57_99'
p1168
g6
sS'7_21_50'
p1169
g6
sS'7_21_51'
p1170
g6
sS'8_74_100'
p1171
g6
sS'8_74_101'
p1172
g6
sS'9_117_205'
p1173
g8
sS'9_117_204'
p1174
g8
sS'9_108_180'
p1175
g8
sS'9_108_181'
p1176
g8
sS'9_108_182'
p1177
g8
sS'9_108_183'
p1178
g8
sS'9_108_184'
p1179
g8
sS'9_108_185'
p1180
g8
sS'9_108_186'
p1181
g8
sS'9_108_187'
p1182
g8
sS'9_108_188'
p1183
g8
sS'9_108_189'
p1184
g8
sS'8_58_99'
p1185
g6
sS'9_101_175'
p1186
g8
sS'9_83_175'
p1187
g8
sS'8_69_99'
p1188
g6
sS'8_69_98'
p1189
g6
sS'8_69_93'
p1190
g6
sS'8_69_92'
p1191
g6
sS'8_69_91'
p1192
g6
sS'8_69_97'
p1193
g6
sS'8_69_95'
p1194
g6
sS'8_69_94'
p1195
g6
sS'9_114_204'
p1196
g8
sS'8_56_99'
p1197
g6
sS'9_114_203'
p1198
g8
sS'8_56_94'
p1199
g6
sS'8_56_96'
p1200
g6
sS'8_56_91'
p1201
g6
sS'9_159_185'
p1202
g3
sS'9_159_182'
p1203
g3
sS'9_159_183'
p1204
g3
sS'9_159_180'
p1205
g3
sS'9_159_181'
p1206
g3
sS'9_124_177'
p1207
g8
sS'9_124_176'
p1208
g8
sS'8_52_87'
p1209
g6
sS'7_27_52'
p1210
g6
sS'7_27_53'
p1211
g6
sS'7_27_50'
p1212
g6
sS'7_27_51'
p1213
g6
sS'9_79_193'
p1214
g8
sS'9_79_192'
p1215
g8
sS'9_79_191'
p1216
g8
sS'9_79_190'
p1217
g8
sS'9_101_209'
p1218
g8
sS'8_50_87'
p1219
g6
sS'9_101_199'
p1220
g8
sS'9_85_182'
p1221
g8
sS'9_101_191'
p1222
g8
sS'9_83_202'
p1223
g8
sS'9_144_195'
p1224
g3
sS'9_144_194'
p1225
g3
sS'9_144_190'
p1226
g3
sS'8_72_100'
p1227
g6
sS'8_72_101'
p1228
g6
sS'8_72_102'
p1229
g6
sS'8_63_98'
p1230
g6
sS'7_36_49'
p1231
g6
sS'8_63_90'
p1232
g6
sS'8_63_93'
p1233
g6
sS'8_63_95'
p1234
g6
sS'8_63_94'
p1235
g6
sS'8_63_97'
p1236
g6
sS'8_63_96'
p1237
g6
sS'9_124_182'
p1238
g8
sS'7_39_47'
p1239
g6
sS'7_39_44'
p1240
g6
sS'7_39_45'
p1241
g6
sS'9_124_187'
p1242
g8
sS'9_124_184'
p1243
g8
sS'9_124_185'
p1244
g8
sS'7_28_48'
p1245
g6
sS'7_28_49'
p1246
g6
sS'7_28_43'
p1247
g6
sS'7_28_45'
p1248
g6
sS'7_28_47'
p1249
g6
sS'7_40_46'
p1250
g6
sS'7_40_45'
p1251
g6
sS'9_102_175'
p1252
g8
sS'9_122_210'
p1253
g8
sS'9_122_211'
p1254
g8
sS'8_65_99'
p1255
g6
sS'8_65_98'
p1256
g6
sS'8_65_97'
p1257
g6
sS'8_65_96'
p1258
g6
sS'8_65_95'
p1259
g6
sS'8_65_94'
p1260
g6
sS'8_65_92'
p1261
g6
sS'8_65_91'
p1262
g6
sS'8_61_93'
p1263
g6
sS'9_115_204'
p1264
g8
sS'8_61_91'
p1265
g6
sS'9_150_184'
p1266
g3
sS'8_61_96'
p1267
g6
sS'9_109_175'
p1268
g8
sS'9_96_190'
p1269
g8
sS'9_117_214'
p1270
g8
sS'9_117_215'
p1271
g8
sS'9_117_216'
p1272
g8
sS'9_96_199'
p1273
g8
sS'9_139_196'
p1274
g8
sS'9_139_195'
p1275
g8
sS'8_58_87'
p1276
g6
sS'8_58_88'
p1277
g6
sS'8_58_89'
p1278
g6
sS'9_139_199'
p1279
g8
sS'9_139_198'
p1280
g8
sS'8_63_102'
p1281
g6
sS'8_63_103'
p1282
g6
sS'8_63_100'
p1283
g6
sS'8_63_101'
p1284
g6
sS'8_63_106'
p1285
g6
sS'9_96_175'
p1286
g8
sS'8_63_104'
p1287
g6
sS'9_92_202'
p1288
g8
sS'9_92_203'
p1289
g8
sS'9_92_200'
p1290
g8
sS'9_92_201'
p1291
g8
sS'9_92_206'
p1292
g8
sS'9_92_207'
p1293
g8
sS'9_92_205'
p1294
g8
sS'8_56_87'
p1295
g6
sS'6_20_22'
p1296
g6
sS'9_145_186'
p1297
g3
sS'7_33_52'
p1298
g6
sS'9_136_202'
p1299
g8
sS'9_144_186'
p1300
g3
sS'8_44_103'
p1301
g6
sS'8_44_102'
p1302
g6
sS'8_58_108'
p1303
g6
sS'9_114_182'
p1304
g8
sS'9_99_184'
p1305
g8
sS'9_95_207'
p1306
g8
sS'9_95_208'
p1307
g8
sS'9_126_207'
p1308
g8
sS'9_134_179'
p1309
g8
sS'9_126_205'
p1310
g8
sS'9_126_204'
p1311
g8
sS'9_126_203'
p1312
g8
sS'9_126_200'
p1313
g8
sS'8_63_88'
p1314
g6
sS'8_63_89'
p1315
g6
sS'9_81_175'
p1316
g8
sS'9_81_176'
p1317
g8
sS'7_30_49'
p1318
g6
sS'9_124_200'
p1319
g8
sS'9_124_206'
p1320
g8
sS'7_30_43'
p1321
g6
sS'7_30_45'
p1322
g6
sS'8_45_103'
p1323
g6
sS'8_45_100'
p1324
g6
sS'7_30_46'
p1325
g6
sS'9_141_197'
p1326
g8
sS'9_141_192'
p1327
g8
sS'9_132_210'
p1328
g8
sS'9_117_217'
p1329
g8
sS'9_90_178'
p1330
g8
sS'9_90_176'
p1331
g8
sS'9_90_177'
p1332
g8
sS'9_90_175'
p1333
g8
sS'9_117_199'
p1334
g8
sS'8_65_88'
p1335
g6
sS'8_65_89'
p1336
g6
sS'9_150_191'
p1337
g3
sS'8_59_107'
p1338
g6
sS'8_59_106'
p1339
g6
sS'9_150_194'
p1340
g3
sS'9_150_195'
p1341
g3
sS'8_59_102'
p1342
g6
sS'9_115_216'
p1343
g8
sS'9_115_217'
p1344
g8
sS'8_61_88'
p1345
g6
sS'9_139_219'
p1346
g8
sS'9_87_190'
p1347
g8
sS'9_87_197'
p1348
g8
sS'9_87_198'
p1349
g8
sS'9_139_190'
p1350
g8
sS'9_135_210'
p1351
g8
sS'9_137_211'
p1352
g8
sS'9_87_204'
p1353
g8
sS'9_87_205'
p1354
g8
sS'9_87_206'
p1355
g8
sS'9_135_211'
p1356
g8
sS'9_139_216'
p1357
g8
sS'9_109_182'
p1358
g8
sS'9_109_188'
p1359
g8
sS'9_122_176'
p1360
g8
sS'9_138_189'
p1361
g8
sS'9_138_188'
p1362
g8
sS'9_138_183'
p1363
g8
sS'9_138_185'
p1364
g8
sS'9_138_184'
p1365
g8
sS'9_138_187'
p1366
g8
sS'9_137_219'
p1367
g8
sS'9_140_220'
p1368
g8
sS'9_84_182'
p1369
g8
sS'9_96_185'
p1370
g8
sS'9_139_189'
p1371
g8
sS'9_139_185'
p1372
g8
sS'9_139_186'
p1373
g8
sS'9_139_187'
p1374
g8
sS'7_20_50'
p1375
g6
sS'9_131_199'
p1376
g8
sS'9_131_197'
p1377
g8
sS'9_131_196'
p1378
g8
sS'9_131_195'
p1379
g8
sS'9_131_194'
p1380
g8
sS'9_131_193'
p1381
g8
sS'9_131_192'
p1382
g8
sS'9_131_191'
p1383
g8
sS'9_131_190'
p1384
g8
sS'9_116_182'
p1385
g8
sS'7_26_51'
p1386
g6
sS'7_26_53'
p1387
g6
sS'7_26_52'
p1388
g6
sS'9_117_175'
p1389
g8
sS'9_117_177'
p1390
g8
sS'9_117_176'
p1391
g8
sS'8_47_92'
p1392
g6
sS'8_47_91'
p1393
g6
sS'9_117_178'
p1394
g8
sS'8_47_99'
p1395
g6
sS'9_124_192'
p1396
g8
sS'9_125_187'
p1397
g8
sS'9_125_186'
p1398
g8
sS'9_125_185'
p1399
g8
sS'9_152_188'
p1400
g3
sS'9_145_190'
p1401
g3
sS'9_103_175'
p1402
g8
sS'9_145_194'
p1403
g3
sS'9_145_195'
p1404
g3
sS'4_4_5'
p1405
g6
sS'4_4_6'
p1406
g6
sS'9_89_190'
p1407
g8
sS'9_118_214'
p1408
g8
sS'9_118_213'
p1409
g8
sS'9_89_199'
p1410
g8
sS'9_160_182'
p1411
g3
sS'9_160_183'
p1412
g3
sS'9_160_184'
p1413
g3
sS'9_160_185'
p1414
g3
sS'8_67_95'
p1415
g6
sS'8_67_97'
p1416
g6
sS'8_67_96'
p1417
g6
sS'8_67_90'
p1418
g6
sS'8_67_99'
p1419
g6
sS'8_67_98'
p1420
g6
sS'9_99_199'
p1421
g8
sS'9_99_191'
p1422
g8
sS'9_111_200'
p1423
g8
sS'4_2_6'
p1424
g6
sS'4_2_5'
p1425
g6
sS'9_102_209'
p1426
g8
sS'9_102_208'
p1427
g8
sS'7_30_52'
p1428
g6
sS'7_30_53'
p1429
g6
sS'7_30_50'
p1430
g6
sS'7_30_51'
p1431
g6
sS'9_124_212'
p1432
g8
sS'9_124_211'
p1433
g8
sS'9_138_210'
p1434
g8
sS'9_138_213'
p1435
g8
sS'9_138_212'
p1436
g8
sS'9_138_215'
p1437
g8
sS'9_138_214'
p1438
g8
sS'9_138_216'
p1439
g8
sS'9_94_207'
p1440
g8
sS'9_132_209'
p1441
g8
sS'9_115_193'
p1442
g8
sS'9_126_212'
p1443
g8
sS'9_115_199'
p1444
g8
sS'9_132_202'
p1445
g8
sS'9_147_200'
p1446
g3
sS'9_86_196'
p1447
g8
sS'9_87_182'
p1448
g8
sS'9_146_200'
p1449
g3
sS'9_146_203'
p1450
g3
sS'8_41_91'
p1451
g6
sS'9_109_191'
p1452
g8
sS'8_41_95'
p1453
g6
sS'8_41_99'
p1454
g6
sS'9_109_199'
p1455
g8
sS'8_77_92'
p1456
g6
sS'9_138_198'
p1457
g8
sS'9_138_199'
p1458
g8
sS'9_138_190'
p1459
g8
sS'9_138_196'
p1460
g8
sS'9_138_197'
p1461
g8
sS'6_18_24'
p1462
g6
sS'6_18_25'
p1463
g6
sS'9_84_204'
p1464
g8
sS'9_84_203'
p1465
g8
sS'9_84_202'
p1466
g8
sS'6_18_23'
p1467
g6
sS'8_43_99'
p1468
g6
sS'8_43_98'
p1469
g6
sS'9_84_190'
p1470
g8
sS'8_43_91'
p1471
g6
sS'8_43_95'
p1472
g6
sS'8_50_104'
p1473
g6
sS'8_50_100'
p1474
g6
sS'8_50_101'
p1475
g6
sS'8_50_102'
p1476
g6
sS'8_50_103'
p1477
g6
sS'7_20_43'
p1478
g6
sS'7_20_44'
p1479
g6
sS'7_20_45'
p1480
g6
sS'7_20_47'
p1481
g6
sS'7_20_48'
p1482
g6
sS'7_20_49'
p1483
g6
sS'9_146_197'
p1484
g3
sS'9_146_196'
p1485
g3
sS'9_146_190'
p1486
g3
sS'9_131_182'
p1487
g8
sS'9_131_183'
p1488
g8
sS'9_131_184'
p1489
g8
sS'9_110_211'
p1490
g8
sS'9_131_189'
p1491
g8
sS'7_26_49'
p1492
g6
sS'7_26_43'
p1493
g6
sS'7_26_46'
p1494
g6
sS'7_26_47'
p1495
g6
sS'8_47_87'
p1496
g6
sS'9_125_194'
p1497
g8
sS'9_124_183'
p1498
g8
sS'9_124_180'
p1499
g8
sS'9_124_181'
p1500
g8
sS'9_92_179'
p1501
g8
sS'9_125_192'
p1502
g8
sS'9_125_193'
p1503
g8
sS'9_92_175'
p1504
g8
sS'8_70_109'
p1505
g6
sS'8_70_106'
p1506
g6
sS'8_70_107'
p1507
g6
sS'8_70_104'
p1508
g6
sS'8_70_105'
p1509
g6
sS'8_70_103'
p1510
g6
sS'8_70_100'
p1511
g6
sS'8_70_101'
p1512
g6
sS'9_128_201'
p1513
g8
sS'9_128_200'
p1514
g8
sS'9_128_202'
p1515
g8
sS'6_20_23'
p1516
g6
sS'8_46_90'
p1517
g6
sS'9_128_209'
p1518
g8
sS'9_82_200'
p1519
g8
sS'9_89_189'
p1520
g8
sS'9_89_188'
p1521
g8
sS'9_89_181'
p1522
g8
sS'9_89_180'
p1523
g8
sS'9_89_183'
p1524
g8
sS'9_89_182'
p1525
g8
sS'9_89_185'
p1526
g8
sS'9_89_184'
p1527
g8
sS'9_89_187'
p1528
g8
sS'9_89_186'
p1529
g8
sS'9_100_175'
p1530
g8
sS'9_118_204'
p1531
g8
sS'9_118_205'
p1532
g8
sS'8_58_107'
p1533
g6
sS'8_58_102'
p1534
g6
sS'9_114_188'
p1535
g8
sS'9_121_212'
p1536
g8
sS'9_121_211'
p1537
g8
sS'8_67_89'
p1538
g6
sS'8_49_99'
p1539
g6
sS'8_49_93'
p1540
g6
sS'8_49_92'
p1541
g6
sS'8_49_95'
p1542
g6
sS'8_49_94'
p1543
g6
sS'8_42_101'
p1544
g6
sS'9_111_212'
p1545
g8
sS'9_111_211'
p1546
g8
sS'9_158_186'
p1547
g3
sS'9_125_177'
p1548
g8
sS'9_94_190'
p1549
g8
sS'9_94_199'
p1550
g8
sS'9_151_184'
p1551
g3
sS'6_12_23'
p1552
g6
sS'9_138_202'
p1553
g8
sS'9_138_203'
p1554
g8
sS'9_138_200'
p1555
g8
sS'9_138_201'
p1556
g8
sS'9_138_204'
p1557
g8
sS'9_113_199'
p1558
g8
sS'9_113_193'
p1559
g8
sS'8_64_89'
p1560
g6
sS'8_64_88'
p1561
g6
sS'8_60_88'
p1562
g6
sS'8_60_87'
p1563
g6
sS'9_115_182'
p1564
g8
sS'9_115_188'
p1565
g8
s.