(dp1
S'8_60_93'
p2
I1
sS'8_45_99'
p3
I1
sS'8_45_95'
p4
I1
sS'8_52_87'
p5
I1
sS'8_45_91'
p6
I1
sS'8_61_91'
p7
I1
sS'7_27_52'
p8
I1
sS'7_27_53'
p9
I1
sS'7_27_50'
p10
I1
sS'7_27_51'
p11
I1
sS'7_19_44'
p12
I1
sS'7_19_45'
p13
I1
sS'7_19_46'
p14
I1
sS'7_19_47'
p15
I1
sS'7_19_48'
p16
I1
sS'8_66_101'
p17
I1
sS'8_50_87'
p18
I1
sS'5_5_11'
p19
I1
sS'5_5_10'
p20
I1
sS'5_5_13'
p21
I1
sS'5_5_12'
p22
I1
sS'8_41_87'
p23
I1
sS'8_70_95'
p24
I1
sS'8_70_94'
p25
I1
sS'8_62_88'
p26
I1
sS'8_70_97'
p27
I1
sS'8_70_96'
p28
I1
sS'7_33_51'
p29
I1
sS'8_64_101'
p30
I1
sS'8_43_87'
p31
I1
sS'8_55_100'
p32
I1
sS'8_55_105'
p33
I1
sS'8_55_106'
p34
I1
sS'8_39_96'
p35
I1
sS'6_14_21'
p36
I1
sS'8_39_94'
p37
I1
sS'8_39_95'
p38
I1
sS'6_14_24'
p39
I1
sS'6_14_25'
p40
I1
sS'6_14_26'
p41
I1
sS'8_39_91'
p42
I1
sS'8_61_96'
p43
I1
sS'8_44_92'
p44
I1
sS'8_44_93'
p45
I1
sS'8_44_90'
p46
I1
sS'8_44_91'
p47
I1
sS'8_44_94'
p48
I1
sS'8_44_95'
p49
I1
sS'8_44_99'
p50
I1
sS'8_63_98'
p51
I1
sS'8_67_104'
p52
I1
sS'8_67_105'
p53
I1
sS'8_67_102'
p54
I1
sS'8_67_103'
p55
I1
sS'8_67_100'
p56
I1
sS'8_67_101'
p57
I1
sS'7_32_50'
p58
I1
sS'7_32_51'
p59
I1
sS'7_32_52'
p60
I1
sS'7_32_53'
p61
I1
sS'8_63_95'
p62
I1
sS'8_63_94'
p63
I1
sS'8_63_97'
p64
I1
sS'8_63_96'
p65
I1
sS'8_65_101'
p66
I1
sS'5_9_11'
p67
I1
sS'8_68_91'
p68
I1
sS'5_9_12'
p69
I1
sS'8_68_94'
p70
I1
sS'8_68_95'
p71
I1
sS'8_68_97'
p72
I1
sS'8_68_98'
p73
I1
sS'8_68_99'
p74
I1
sS'8_71_93'
p75
I1
sS'8_71_97'
p76
I1
sS'8_71_94'
p77
I1
sS'8_71_95'
p78
I1
sS'8_71_98'
p79
I1
sS'7_28_48'
p80
I1
sS'7_28_49'
p81
I1
sS'7_28_43'
p82
I1
sS'7_28_45'
p83
I1
sS'7_28_47'
p84
I1
sS'7_40_46'
p85
I1
sS'8_70_110'
p86
I1
sS'7_40_45'
p87
I1
sS'5_7_13'
p88
I1
sS'5_7_12'
p89
I1
sS'5_7_11'
p90
I1
sS'5_7_10'
p91
I1
sS'8_54_94'
p92
I1
sS'8_48_99'
p93
I1
sS'8_54_93'
p94
I1
sS'8_48_95'
p95
I1
sS'8_48_92'
p96
I1
sS'6_11_26'
p97
I1
sS'6_11_25'
p98
I1
sS'6_11_24'
p99
I1
sS'6_11_23'
p100
I1
sS'6_11_22'
p101
I1
sS'6_11_21'
p102
I1
sS'8_51_104'
p103
I1
sS'8_70_99'
p104
I1
sS'6_13_23'
p105
I1
sS'8_65_99'
p106
I1
sS'8_65_98'
p107
I1
sS'8_65_97'
p108
I1
sS'8_65_96'
p109
I1
sS'8_65_95'
p110
I1
sS'8_65_94'
p111
I1
sS'8_65_92'
p112
I1
sS'8_65_91'
p113
I1
sS'7_34_52'
p114
I1
sS'7_34_53'
p115
I1
sS'7_34_50'
p116
I1
sS'7_34_51'
p117
I1
sS'8_54_99'
p118
I1
sS'7_34_54'
p119
I1
sS'7_34_55'
p120
I1
sS'6_10_24'
p121
I1
sS'6_10_25'
p122
I1
sS'6_10_21'
p123
I1
sS'6_10_22'
p124
I1
sS'6_10_23'
p125
I1
sS'7_29_43'
p126
I1
sS'8_49_87'
p127
I1
sS'8_70_105'
p128
I1
sS'7_29_47'
p129
I1
sS'7_29_46'
p130
I1
sS'7_29_45'
p131
I1
sS'7_29_44'
p132
I1
sS'7_29_49'
p133
I1
sS'7_29_48'
p134
I1
sS'8_61_102'
p135
I1
sS'8_70_103'
p136
I1
sS'7_22_51'
p137
I1
sS'7_22_50'
p138
I1
sS'8_68_106'
p139
I1
sS'8_68_101'
p140
I1
sS'8_68_100'
p141
I1
sS'8_55_87'
p142
I1
sS'8_61_103'
p143
I1
sS'8_68_109'
p144
I1
sS'8_68_105'
p145
I1
sS'7_25_50'
p146
I1
sS'8_59_87'
p147
I1
sS'7_31_51'
p148
I1
sS'7_31_50'
p149
I1
sS'7_31_53'
p150
I1
sS'7_31_52'
p151
I1
sS'7_23_43'
p152
I1
sS'7_23_45'
p153
I1
sS'7_23_44'
p154
I1
sS'7_23_47'
p155
I1
sS'7_23_46'
p156
I1
sS'8_58_87'
p157
I1
sS'8_58_88'
p158
I1
sS'8_58_89'
p159
I1
sS'8_64_94'
p160
I1
sS'8_75_96'
p161
I1
sS'8_64_90'
p162
I1
sS'8_64_91'
p163
I1
sS'8_63_102'
p164
I1
sS'8_63_103'
p165
I1
sS'8_63_100'
p166
I1
sS'8_63_101'
p167
I1
sS'8_63_106'
p168
I1
sS'8_64_104'
p169
I1
sS'8_63_104'
p170
I1
sS'8_64_106'
p171
I1
sS'6_17_23'
p172
I1
sS'6_17_22'
p173
I1
sS'6_17_25'
p174
I1
sS'6_17_24'
p175
I1
sS'6_17_27'
p176
I1
sS'6_17_26'
p177
I1
sS'8_75_93'
p178
I1
sS'8_60_98'
p179
I1
sS'8_60_99'
p180
I1
sS'8_57_108'
p181
I1
sS'8_56_87'
p182
I1
sS'8_60_96'
p183
I1
sS'8_60_97'
p184
I1
sS'6_16_26'
p185
I1
sS'8_57_107'
p186
I1
sS'6_16_24'
p187
I1
sS'6_16_25'
p188
I1
sS'6_16_22'
p189
I1
sS'6_16_23'
p190
I1
sS'8_63_89'
p191
I1
sS'8_45_88'
p192
I1
sS'8_45_89'
p193
I1
sS'8_56_106'
p194
I1
sS'8_56_107'
p195
I1
sS'8_65_102'
p196
I1
sS'8_56_105'
p197
I1
sS'8_65_104'
p198
I1
sS'8_45_87'
p199
I1
sS'8_56_100'
p200
I1
sS'8_56_101'
p201
I1
sS'8_61_100'
p202
I1
sS'8_60_105'
p203
I1
sS'6_12_23'
p204
I1
sS'6_12_21'
p205
I1
sS'6_12_26'
p206
I1
sS'6_12_24'
p207
I1
sS'6_12_25'
p208
I1
sS'7_24_52'
p209
I1
sS'8_79_89'
p210
I1
sS'8_62_96'
p211
I1
sS'8_62_97'
p212
I1
sS'8_62_92'
p213
I1
sS'8_62_93'
p214
I1
sS'8_62_90'
p215
I1
sS'8_62_91'
p216
I1
sS'8_52_103'
p217
I1
sS'8_44_103'
p218
I1
sS'8_44_102'
p219
I1
sS'6_13_25'
p220
I1
sS'6_13_24'
p221
I1
sS'6_13_26'
p222
I1
sS'6_13_21'
p223
I1
sS'8_46_89'
p224
I1
sS'6_13_22'
p225
I1
sS'8_46_87'
p226
I1
sS'7_37_50'
p227
I1
sS'8_66_93'
p228
I1
sS'8_63_88'
p229
I1
sS'8_45_103'
p230
I1
sS'8_60_106'
p231
I1
sS'7_30_49'
p232
I1
sS'7_30_48'
p233
I1
sS'8_52_104'
p234
I1
sS'7_30_43'
p235
I1
sS'8_60_100'
p236
I1
sS'7_30_45'
p237
I1
sS'7_30_44'
p238
I1
sS'8_45_100'
p239
I1
sS'7_30_46'
p240
I1
sS'7_23_49'
p241
I1
sS'6_19_24'
p242
I1
sS'7_23_48'
p243
I1
sS'8_53_87'
p244
I1
sS'8_80_92'
p245
I1
sS'8_80_91'
p246
I1
sS'8_51_99'
p247
I1
sS'6_9_23'
p248
I1
sS'6_9_22'
p249
I1
sS'6_9_24'
p250
I1
sS'8_71_109'
p251
I1
sS'8_71_108'
p252
I1
sS'8_71_107'
p253
I1
sS'8_71_103'
p254
I1
sS'8_71_102'
p255
I1
sS'8_71_101'
p256
I1
sS'8_71_100'
p257
I1
sS'8_69_104'
p258
I1
sS'8_69_105'
p259
I1
sS'8_69_106'
p260
I1
sS'8_69_107'
p261
I1
sS'8_65_88'
p262
I1
sS'8_65_89'
p263
I1
sS'8_69_102'
p264
I1
sS'8_69_103'
p265
I1
sS'8_59_107'
p266
I1
sS'8_59_106'
p267
I1
sS'8_69_108'
p268
I1
sS'8_69_109'
p269
I1
sS'8_59_102'
p270
I1
sS'8_70_98'
p271
I1
sS'8_74_99'
p272
I1
sS'8_66_104'
p273
I1
sS'8_61_88'
p274
I1
sS'7_29_51'
p275
I1
sS'7_29_53'
p276
I1
sS'7_29_54'
p277
I1
sS'8_62_103'
p278
I1
sS'8_62_100'
p279
I1
sS'8_62_106'
p280
I1
sS'8_62_105'
p281
I1
sS'8_62_104'
p282
I1
sS'8_41_100'
p283
I1
sS'8_41_101'
p284
I1
sS'8_55_98'
p285
I1
sS'8_55_99'
p286
I1
sS'7_22_49'
p287
I1
sS'7_22_46'
p288
I1
sS'7_22_47'
p289
I1
sS'7_22_44'
p290
I1
sS'7_22_45'
p291
I1
sS'8_60_101'
p292
I1
sS'7_22_43'
p293
I1
sS'8_60_102'
p294
I1
sS'8_51_87'
p295
I1
sS'8_39_97'
p296
I1
sS'6_14_22'
p297
I1
sS'6_14_23'
p298
I1
sS'8_39_92'
p299
I1
sS'8_39_93'
p300
I1
sS'8_66_98'
p301
I1
sS'7_23_52'
p302
I1
sS'8_39_90'
p303
I1
sS'7_23_50'
p304
I1
sS'7_23_51'
p305
I1
sS'6_14_27'
p306
I1
sS'7_31_48'
p307
I1
sS'7_31_49'
p308
I1
sS'7_31_46'
p309
I1
sS'7_31_47'
p310
I1
sS'7_31_44'
p311
I1
sS'7_31_45'
p312
I1
sS'7_25_47'
p313
I1
sS'7_25_46'
p314
I1
sS'8_54_95'
p315
I1
sS'7_20_50'
p316
I1
sS'7_25_43'
p317
I1
sS'8_54_92'
p318
I1
sS'8_54_91'
p319
I1
sS'8_54_90'
p320
I1
sS'7_25_49'
p321
I1
sS'7_25_48'
p322
I1
sS'8_54_100'
p323
I1
sS'8_54_101'
p324
I1
sS'8_54_102'
p325
I1
sS'8_54_103'
p326
I1
sS'8_54_105'
p327
I1
sS'8_54_106'
p328
I1
sS'8_64_105'
p329
I1
sS'8_64_99'
p330
I1
sS'8_46_101'
p331
I1
sS'8_46_100'
p332
I1
sS'8_46_103'
p333
I1
sS'8_46_102'
p334
I1
sS'8_61_104'
p335
I1
sS'8_61_105'
p336
I1
sS'8_74_96'
p337
I1
sS'7_26_51'
p338
I1
sS'7_26_53'
p339
I1
sS'7_26_52'
p340
I1
sS'7_33_52'
p341
I1
sS'8_47_95'
p342
I1
sS'7_33_50'
p343
I1
sS'8_47_92'
p344
I1
sS'8_47_91'
p345
I1
sS'8_74_98'
p346
I1
sS'8_47_99'
p347
I1
sS'8_72_100'
p348
I1
sS'8_72_101'
p349
I1
sS'5_8_12'
p350
I1
sS'5_8_13'
p351
I1
sS'5_8_11'
p352
I1
sS'6_19_23'
p353
I1
sS'6_19_22'
p354
I1
sS'8_40_88'
p355
I1
sS'5_4_12'
p356
I1
sS'8_40_87'
p357
I1
sS'5_4_11'
p358
I1
sS'5_6_10'
p359
I1
sS'7_35_55'
p360
I1
sS'7_35_54'
p361
I1
sS'7_35_51'
p362
I1
sS'7_35_50'
p363
I1
sS'7_35_53'
p364
I1
sS'7_35_52'
p365
I1
sS'8_78_95'
p366
I1
sS'8_78_94'
p367
I1
sS'8_78_91'
p368
I1
sS'5_6_11'
p369
I1
sS'8_78_93'
p370
I1
sS'4_4_5'
p371
I1
sS'4_4_6'
p372
I1
sS'8_64_100'
p373
I1
sS'8_55_94'
p374
I1
sS'7_24_49'
p375
I1
sS'7_24_46'
p376
I1
sS'7_24_47'
p377
I1
sS'7_24_43'
p378
I1
sS'8_55_95'
p379
I1
sS'8_79_92'
p380
I1
sS'8_79_93'
p381
I1
sS'8_79_90'
p382
I1
sS'8_79_91'
p383
I1
sS'8_67_95'
p384
I1
sS'8_67_97'
p385
I1
sS'8_47_103'
p386
I1
sS'8_47_104'
p387
I1
sS'8_67_90'
p388
I1
sS'8_67_99'
p389
I1
sS'8_67_98'
p390
I1
sS'8_57_91'
p391
I1
sS'8_63_90'
p392
I1
sS'8_63_93'
p393
I1
sS'8_73_101'
p394
I1
sS'8_73_100'
p395
I1
sS'8_59_89'
p396
I1
sS'7_37_48'
p397
I1
sS'7_37_49'
p398
I1
sS'5_6_12'
p399
I1
sS'8_42_102'
p400
I1
sS'8_46_95'
p401
I1
sS'8_46_96'
p402
I1
sS'7_37_47'
p403
I1
sS'8_46_90'
p404
I1
sS'8_46_91'
p405
I1
sS'8_54_87'
p406
I1
sS'8_42_87'
p407
I1
sS'4_2_6'
p408
I1
sS'4_2_5'
p409
I1
sS'8_57_87'
p410
I1
sS'3_2_2'
p411
I1
sS'3_2_3'
p412
I1
sS'7_21_49'
p413
I1
sS'7_21_48'
p414
I1
sS'7_30_52'
p415
I1
sS'7_30_53'
p416
I1
sS'7_30_50'
p417
I1
sS'7_30_51'
p418
I1
sS'7_21_43'
p419
I1
sS'7_21_47'
p420
I1
sS'7_21_45'
p421
I1
sS'8_77_94'
p422
I1
sS'8_73_98'
p423
I1
sS'8_46_98'
p424
I1
sS'8_73_95'
p425
I1
sS'8_73_97'
p426
I1
sS'8_73_92'
p427
I1
sS'8_73_93'
p428
I1
sS'7_36_47'
p429
I1
sS'7_36_46'
p430
I1
sS'8_66_95'
p431
I1
sS'7_36_49'
p432
I1
sS'7_36_48'
p433
I1
sS'8_53_95'
p434
I1
sS'8_53_92'
p435
I1
sS'8_46_99'
p436
I1
sS'8_49_104'
p437
I1
sS'8_53_99'
p438
I1
sS'8_76_93'
p439
I1
sS'8_76_92'
p440
I1
sS'8_68_90'
p441
I1
sS'8_72_97'
p442
I1
sS'8_72_95'
p443
I1
sS'8_72_93'
p444
I1
sS'5_10_11'
p445
I1
sS'8_75_95'
p446
I1
sS'8_69_100'
p447
I1
sS'8_69_101'
p448
I1
sS'8_52_92'
p449
I1
sS'8_52_95'
p450
I1
sS'8_69_110'
p451
I1
sS'8_52_99'
p452
I1
sS'7_27_45'
p453
I1
sS'7_27_44'
p454
I1
sS'7_27_47'
p455
I1
sS'7_27_46'
p456
I1
sS'7_27_43'
p457
I1
sS'8_77_95'
p458
I1
sS'7_27_49'
p459
I1
sS'7_27_48'
p460
I1
sS'8_50_99'
p461
I1
sS'8_50_98'
p462
I1
sS'8_50_92'
p463
I1
sS'8_50_97'
p464
I1
sS'8_50_96'
p465
I1
sS'8_50_95'
p466
I1
sS'8_41_91'
p467
I1
sS'8_41_95'
p468
I1
sS'8_41_99'
p469
I1
sS'8_77_92'
p470
I1
sS'8_51_92'
p471
I1
sS'8_66_99'
p472
I1
sS'7_38_45'
p473
I1
sS'8_51_95'
p474
I1
sS'7_38_47'
p475
I1
sS'7_38_46'
p476
I1
sS'8_66_92'
p477
I1
sS'7_38_48'
p478
I1
sS'8_66_91'
p479
I1
sS'8_66_94'
p480
I1
sS'8_58_96'
p481
I1
sS'6_18_24'
p482
I1
sS'6_18_25'
p483
I1
sS'6_18_23'
p484
I1
sS'8_67_96'
p485
I1
sS'8_43_99'
p486
I1
sS'8_43_98'
p487
I1
sS'8_43_91'
p488
I1
sS'8_43_95'
p489
I1
sS'8_50_104'
p490
I1
sS'8_50_100'
p491
I1
sS'8_50_101'
p492
I1
sS'8_50_102'
p493
I1
sS'8_50_103'
p494
I1
sS'8_39_89'
p495
I1
sS'8_39_88'
p496
I1
sS'8_65_100'
p497
I1
sS'7_20_43'
p498
I1
sS'7_20_44'
p499
I1
sS'7_20_45'
p500
I1
sS'7_25_52'
p501
I1
sS'7_20_47'
p502
I1
sS'7_20_48'
p503
I1
sS'7_20_49'
p504
I1
sS'8_54_88'
p505
I1
sS'8_54_89'
p506
I1
sS'8_64_98'
p507
I1
sS'8_44_87'
p508
I1
sS'8_65_103'
p509
I1
sS'8_44_89'
p510
I1
sS'8_44_88'
p511
I1
sS'8_65_105'
p512
I1
sS'7_32_49'
p513
I1
sS'7_32_48'
p514
I1
sS'7_32_47'
p515
I1
sS'7_32_46'
p516
I1
sS'7_32_45'
p517
I1
sS'7_32_44'
p518
I1
sS'4_3_6'
p519
I1
sS'4_3_5'
p520
I1
sS'7_26_43'
p521
I1
sS'7_26_46'
p522
I1
sS'7_26_47'
p523
I1
sS'4_5_5'
p524
I1
sS'8_66_105'
p525
I1
sS'8_47_87'
p526
I1
sS'7_33_44'
p527
I1
sS'7_33_45'
p528
I1
sS'7_33_46'
p529
I1
sS'7_33_47'
p530
I1
sS'7_33_48'
p531
I1
sS'7_33_49'
p532
I1
sS'7_25_51'
p533
I1
sS'8_40_97'
p534
I1
sS'8_40_95'
p535
I1
sS'8_40_90'
p536
I1
sS'8_40_91'
p537
I1
sS'8_40_98'
p538
I1
sS'8_40_99'
p539
I1
sS'7_39_46'
p540
I1
sS'7_39_47'
p541
I1
sS'7_39_44'
p542
I1
sS'7_39_45'
p543
I1
sS'3_1_3'
p544
I1
sS'3_1_2'
p545
I1
sS'7_28_53'
p546
I1
sS'7_28_52'
p547
I1
sS'7_28_51'
p548
I1
sS'7_28_50'
p549
I1
sS'7_28_54'
p550
I1
sS'7_35_48'
p551
I1
sS'7_35_49'
p552
I1
sS'8_70_109'
p553
I1
sS'8_70_106'
p554
I1
sS'8_70_107'
p555
I1
sS'8_70_104'
p556
I1
sS'5_6_13'
p557
I1
sS'7_35_46'
p558
I1
sS'7_35_47'
p559
I1
sS'8_70_100'
p560
I1
sS'8_70_101'
p561
I1
sS'8_69_98'
p562
I1
sS'8_48_87'
p563
I1
sS'7_37_46'
p564
I1
sS'8_53_103'
p565
I1
sS'8_75_97'
p566
I1
sS'8_75_94'
p567
I1
sS'8_46_97'
p568
I1
sS'8_75_92'
p569
I1
sS'8_53_106'
p570
I1
sS'8_53_105'
p571
I1
sS'8_53_104'
p572
I1
sS'6_20_23'
p573
I1
sS'6_20_22'
p574
I1
sS'8_78_89'
p575
I1
sS'8_57_102'
p576
I1
sS'8_57_101'
p577
I1
sS'8_58_108'
p578
I1
sS'8_43_101'
p579
I1
sS'8_43_102'
p580
I1
sS'8_43_103'
p581
I1
sS'8_58_107'
p582
I1
sS'8_58_102'
p583
I1
sS'7_34_45'
p584
I1
sS'7_34_47'
p585
I1
sS'7_34_46'
p586
I1
sS'7_34_49'
p587
I1
sS'7_34_48'
p588
I1
sS'8_67_89'
p589
I1
sS'8_48_104'
p590
I1
sS'8_49_99'
p591
I1
sS'8_49_93'
p592
I1
sS'8_49_92'
p593
I1
sS'8_49_95'
p594
I1
sS'8_49_94'
p595
I1
sS'8_59_99'
p596
I1
sS'8_74_92'
p597
I1
sS'8_74_95'
p598
I1
sS'8_74_97'
p599
I1
sS'8_42_101'
p600
I1
sS'8_59_90'
p601
I1
sS'8_59_91'
p602
I1
sS'8_59_92'
p603
I1
sS'8_59_93'
p604
I1
sS'8_59_94'
p605
I1
sS'8_59_95'
p606
I1
sS'8_59_96'
p607
I1
sS'8_42_91'
p608
I1
sS'8_42_95'
p609
I1
sS'8_42_96'
p610
I1
sS'8_42_97'
p611
I1
sS'8_42_98'
p612
I1
sS'8_55_96'
p613
I1
sS'8_55_97'
p614
I1
sS'8_57_96'
p615
I1
sS'8_57_94'
p616
I1
sS'8_72_102'
p617
I1
sS'8_60_87'
p618
I1
sS'8_57_99'
p619
I1
sS'8_55_91'
p620
I1
sS'6_15_23'
p621
I1
sS'6_15_22'
p622
I1
sS'6_15_21'
p623
I1
sS'6_15_26'
p624
I1
sS'6_15_25'
p625
I1
sS'6_15_24'
p626
I1
sS'7_21_50'
p627
I1
sS'7_21_51'
p628
I1
sS'8_76_96'
p629
I1
sS'8_76_95'
p630
I1
sS'8_76_94'
p631
I1
sS'8_74_100'
p632
I1
sS'8_74_101'
p633
I1
sS'8_77_91'
p634
I1
sS'8_58_91'
p635
I1
sS'8_77_93'
p636
I1
sS'7_36_50'
p637
I1
sS'7_36_51'
p638
I1
sS'8_58_94'
p639
I1
sS'8_66_89'
p640
I1
sS'8_58_99'
p641
I1
sS'8_78_90'
p642
I1
sS'8_64_89'
p643
I1
sS'8_64_88'
p644
I1
sS'8_69_99'
p645
I1
sS'7_26_49'
p646
I1
sS'8_69_93'
p647
I1
sS'8_69_92'
p648
I1
sS'8_69_91'
p649
I1
sS'8_69_97'
p650
I1
sS'8_69_95'
p651
I1
sS'8_69_94'
p652
I1
sS'8_60_88'
p653
I1
sS'8_56_99'
p654
I1
sS'8_56_94'
p655
I1
sS'8_56_96'
p656
I1
sS'8_56_91'
p657
I1
sS'8_61_93'
p658
I1
s.